******************************************************************************
                  TI ARM Linker Unix v18.1.1
******************************************************************************
>> Linked Mon Apr  9 00:11:01 2018

OUTPUT FILE NAME:   <sensor_cc1350lp.out>
ENTRY POINT SYMBOL: "ResetISR"  address: 00014ae1


MEMORY CONFIGURATION

         name            origin    length      used     unused   attr    fill
----------------------  --------  ---------  --------  --------  ----  --------
  FLASH                 00000000   0001e000  000190e0  00004f20  R  X
  FLASH_NV              0001e000   00001000  00001000  00000000  RW X
  FLASH_LAST            0001f000   00001000  00000b38  000004c8  R  X
  SRAM                  20000000   00005000  00003310  00001cf0  RW X


SEGMENT ALLOCATION MAP

run origin  load origin   length   init length attrs members
----------  ----------- ---------- ----------- ----- -------
00000000    00000000    00000c6c   00000c6c    r--
  00000000    00000000    0000003c   0000003c    r-- .resetVecs
  0000003c    0000003c    00000c30   00000c30    r-- .const
00001000    00001000    00018480   00018480    r-x
  00001000    00001000    0000003c   0000003c    r-- .const:ti_sysbios_knl_Task_Object__PARAMS__C
  0000103c    0000103c    00000034   00000034    r-- .const:ti_sysbios_knl_Mailbox_Object__PARAMS__C
  00001070    00001070    00000030   00000030    r-- .const:ti_sysbios_family_arm_m3_Hwi_Object__PARAMS__C
  000010a0    000010a0    0000002c   0000002c    r-- .const:ti_sysbios_hal_Hwi_Object__PARAMS__C
  000010cc    000010cc    00000028   00000028    r-- .const:ti_sysbios_heaps_HeapMem_Module__FXNS__C
  000010f4    000010f4    00000028   00000028    r-- .const:ti_sysbios_knl_Swi_Object__PARAMS__C
  0000111c    0000111c    00000024   00000024    r-- .const:ti_sysbios_gates_GateHwi_Module__FXNS__C
  00001140    00001140    00000024   00000024    r-- .const:ti_sysbios_gates_GateMutex_Module__FXNS__C
  00001164    00001164    00000024   00000024    r-- .const:ti_sysbios_heaps_HeapMem_Object__PARAMS__C
  00001188    00001188    00000024   00000024    r-- .const:ti_sysbios_knl_Clock_Object__PARAMS__C
  000011ac    000011ac    00000024   00000024    r-- .const:ti_sysbios_knl_Semaphore_Object__PARAMS__C
  000011d0    000011d0    00000020   00000020    r-- .const:ti_sysbios_family_arm_m3_Hwi_Object__DESC__C
  000011f0    000011f0    00000020   00000020    r-- .const:ti_sysbios_gates_GateHwi_Object__DESC__C
  00001210    00001210    00000020   00000020    r-- .const:ti_sysbios_gates_GateMutex_Object__DESC__C
  00001230    00001230    00000020   00000020    r-- .const:ti_sysbios_hal_Hwi_Object__DESC__C
  00001250    00001250    00000020   00000020    r-- .const:ti_sysbios_heaps_HeapMem_Object__DESC__C
  00001270    00001270    00000020   00000020    r-- .const:ti_sysbios_knl_Clock_Object__DESC__C
  00001290    00001290    00000020   00000020    r-- .const:ti_sysbios_knl_Mailbox_Object__DESC__C
  000012b0    000012b0    00000020   00000020    r-- .const:ti_sysbios_knl_Queue_Object__DESC__C
  000012d0    000012d0    00000020   00000020    r-- .const:ti_sysbios_knl_Semaphore_Object__DESC__C
  000012f0    000012f0    00000020   00000020    r-- .const:ti_sysbios_knl_Swi_Object__DESC__C
  00001310    00001310    00000020   00000020    r-- .const:ti_sysbios_knl_Task_Object__DESC__C
  00001330    00001330    00000018   00000018    r-- .const:ti_sysbios_gates_GateHwi_Object__PARAMS__C
  00001348    00001348    00000018   00000018    r-- .const:ti_sysbios_gates_GateMutex_Object__PARAMS__C
  00001360    00001360    00000018   00000018    r-- .const:ti_sysbios_knl_Queue_Object__PARAMS__C
  00001378    00001378    00000008   00000008    r-- .const:ti_sysbios_knl_Idle_funcList__C
  00001384    00001384    00000004   00000004    r-- .const:ti_sysbios_family_arm_cc26xx_Timer_startupNeeded__C
  00001388    00001388    00000004   00000004    r-- .const:ti_sysbios_family_arm_m3_Hwi_E_alreadyDefined__C
  0000138c    0000138c    00000004   00000004    r-- .const:ti_sysbios_family_arm_m3_Hwi_E_hwiLimitExceeded__C
  00001390    00001390    00000004   00000004    r-- .const:ti_sysbios_family_arm_m3_Hwi_NUM_INTERRUPTS__C
  00001394    00001394    00000004   00000004    r-- .const:ti_sysbios_family_arm_m3_Hwi_Object__count__C
  00001398    00001398    00000004   00000004    r-- .const:ti_sysbios_family_arm_m3_Hwi_Object__table__C
  0000139c    0000139c    00000004   00000004    r-- .const:ti_sysbios_family_arm_m3_Hwi_ccr__C
  000013a0    000013a0    00000004   00000004    r-- .const:ti_sysbios_family_arm_m3_Hwi_excHandlerFunc__C
  000013a4    000013a4    00000004   00000004    r-- .const:ti_sysbios_family_arm_m3_Hwi_nullIsrFunc__C
  000013a8    000013a8    00000004   00000004    r-- .const:ti_sysbios_family_arm_m3_Hwi_numSparseInterrupts__C
  000013ac    000013ac    00000004   00000004    r-- .const:ti_sysbios_family_arm_m3_Hwi_priGroup__C
  000013b0    000013b0    00000004   00000004    r-- .const:ti_sysbios_family_arm_m3_TaskSupport_stackAlignment__C
  000013b4    000013b4    00000004   00000004    r-- .const:ti_sysbios_heaps_HeapMem_E_memory__C
  000013b8    000013b8    00000004   00000004    r-- .const:ti_sysbios_heaps_HeapMem_Module__gateObj__C
  000013bc    000013bc    00000004   00000004    r-- .const:ti_sysbios_heaps_HeapMem_Object__count__C
  000013c0    000013c0    00000004   00000004    r-- .const:ti_sysbios_heaps_HeapMem_Object__table__C
  000013c4    000013c4    00000004   00000004    r-- .const:ti_sysbios_heaps_HeapMem_reqAlign__C
  000013c8    000013c8    00000004   00000004    r-- .const:ti_sysbios_knl_Clock_serviceMargin__C
  000013cc    000013cc    00000004   00000004    r-- .const:ti_sysbios_knl_Mailbox_Object__count__C
  000013d0    000013d0    00000004   00000004    r-- .const:ti_sysbios_knl_Mailbox_Object__table__C
  000013d4    000013d4    00000004   00000004    r-- .const:ti_sysbios_knl_Mailbox_maxTypeAlign__C
  000013d8    000013d8    00000004   00000004    r-- .const:ti_sysbios_knl_Queue_Object__count__C
  000013dc    000013dc    00000004   00000004    r-- .const:ti_sysbios_knl_Queue_Object__table__C
  000013e0    000013e0    00000004   00000004    r-- .const:ti_sysbios_knl_Swi_Object__count__C
  000013e4    000013e4    00000004   00000004    r-- .const:ti_sysbios_knl_Swi_Object__table__C
  000013e8    000013e8    00000004   00000004    r-- .const:ti_sysbios_knl_Swi_numPriorities__C
  000013ec    000013ec    00000004   00000004    r-- .const:ti_sysbios_knl_Task_Object__count__C
  000013f0    000013f0    00000004   00000004    r-- .const:ti_sysbios_knl_Task_Object__table__C
  000013f4    000013f4    00000004   00000004    r-- .const:ti_sysbios_knl_Task_allBlockedFunc__C
  000013f8    000013f8    00000004   00000004    r-- .const:ti_sysbios_knl_Task_defaultStackHeap__C
  000013fc    000013fc    00000004   00000004    r-- .const:ti_sysbios_knl_Task_defaultStackSize__C
  00001400    00001400    00000004   00000004    r-- .const:ti_sysbios_knl_Task_numConstructedTasks__C
  00001406    00001406    00000002   00000002    r-- .const:ti_sysbios_family_arm_cc26xx_Timer_Module__id__C
  00001408    00001408    00000002   00000002    r-- .const:ti_sysbios_family_arm_cc26xx_TimestampProvider_useClockTimer__C
  0000140a    0000140a    00000002   00000002    r-- .const:ti_sysbios_family_arm_m3_Hwi_Module__id__C
  0000140c    0000140c    00000002   00000002    r-- .const:ti_sysbios_gates_GateHwi_Module__id__C
  0000140e    0000140e    00000002   00000002    r-- .const:ti_sysbios_gates_GateMutex_Module__id__C
  00001410    00001410    00000002   00000002    r-- .const:ti_sysbios_heaps_HeapMem_Module__id__C
  00001412    00001412    00000002   00000002    r-- .const:ti_sysbios_knl_Task_initStackFlag__C
  00001414    00001414    00000001   00000001    r-- .const:ti_sysbios_knl_Clock_tickMode__C
  00001418    00001418    00000008   00000008    r-- .const:xdc_runtime_Startup_firstFxns__C
  00001420    00001420    00000008   00000008    r-- .const:xdc_runtime_Startup_lastFxns__C
  00001428    00001428    00000004   00000004    r-- .const:xdc_runtime_Assert_E_assertFailed__C
  0000142c    0000142c    00000004   00000004    r-- .const:xdc_runtime_Error_E_memory__C
  00001430    00001430    00000004   00000004    r-- .const:xdc_runtime_Error_policyFxn__C
  00001434    00001434    00000004   00000004    r-- .const:xdc_runtime_IGateProvider_Interface__BASE__C
  00001438    00001438    00000004   00000004    r-- .const:xdc_runtime_IHeap_Interface__BASE__C
  0000143c    0000143c    00000004   00000004    r-- .const:xdc_runtime_IModule_Interface__BASE__C
  00001440    00001440    00000004   00000004    r-- .const:xdc_runtime_Main_Module__diagsEnabled__C
  00001444    00001444    00000004   00000004    r-- .const:xdc_runtime_Main_Module__diagsIncluded__C
  00001448    00001448    00000004   00000004    r-- .const:xdc_runtime_Main_Module__diagsMask__C
  0000144c    0000144c    00000004   00000004    r-- .const:xdc_runtime_Memory_defaultHeapInstance__C
  00001450    00001450    00000004   00000004    r-- .const:xdc_runtime_Startup_execImpl__C
  00001454    00001454    00000004   00000004    r-- .const:xdc_runtime_Startup_maxPasses__C
  00001458    00001458    00000004   00000004    r-- .const:xdc_runtime_Startup_sfxnRts__C
  0000145c    0000145c    00000004   00000004    r-- .const:xdc_runtime_Startup_sfxnTab__C
  00001460    00001460    00000004   00000004    r-- .const:xdc_runtime_Startup_startModsFxn__C
  00001464    00001464    00000004   00000004    r-- .const:xdc_runtime_SysCallback_abortFxn__C
  00001468    00001468    00000004   00000004    r-- .const:xdc_runtime_SysCallback_exitFxn__C
  0000146c    0000146c    00000004   00000004    r-- .const:xdc_runtime_System_abortFxn__C
  00001470    00001470    00000004   00000004    r-- .const:xdc_runtime_System_exitFxn__C
  00001474    00001474    00000004   00000004    r-- .const:xdc_runtime_System_maxAtexitHandlers__C
  00001478    00001478    00000004   00000004    r-- .const:xdc_runtime_Text_charTab__C
  0000147c    0000147c    00000004   00000004    r-- .const:xdc_runtime_Text_nameEmpty__C
  00001480    00001480    00000004   00000004    r-- .const:xdc_runtime_Text_nameStatic__C
  00001484    00001484    00000004   00000004    r-- .const:xdc_runtime_Text_nameUnknown__C
  00001488    00001488    00000002   00000002    r-- .const:xdc_runtime_Main_Module__id__C
  0000148a    0000148a    00000002   00000002    r-- .const:xdc_runtime_Memory_Module__id__C
  0000148c    0000148c    00000002   00000002    r-- .const:xdc_runtime_Text_charCnt__C
  0000148e    0000148e    00000002   00000002    r-- .const:xdc_runtime_Text_isLoaded__C
  00001490    00001490    00000001   00000001    r-- .const:xdc_runtime_Error_policy__C
  00001494    00001494    00000004   00000004    r-- .const:ti_sysbios_rom_ROM_AONRTCChannelEnable
  00001498    00001498    00000004   00000004    r-- .const:ti_sysbios_rom_ROM_AONRTCCompareValueSet
  0000149c    0000149c    00000004   00000004    r-- .const:ti_sysbios_rom_ROM_AONRTCCurrentCompareValueGet
  000014a0    000014a0    00000004   00000004    r-- .const:ti_sysbios_rom_ROM_AONRTCEventClear
  000014a4    000014a4    00000004   00000004    r-- .const:ti_sysbios_rom_ROM_ti_sysbios_family_arm_cc26xx_Timer_getCount64__E
  000014a8    000014a8    00000004   00000004    r-- .const:ti_sysbios_rom_ROM_ti_sysbios_family_arm_cc26xx_Timer_getCurrentTick__E
  000014ac    000014ac    00000004   00000004    r-- .const:ti_sysbios_rom_ROM_ti_sysbios_family_arm_cc26xx_Timer_getMaxTicks__E
  000014b0    000014b0    00000004   00000004    r-- .const:ti_sysbios_rom_ROM_ti_sysbios_family_arm_cc26xx_Timer_initDevice__I
  000014b4    000014b4    00000004   00000004    r-- .const:ti_sysbios_rom_ROM_ti_sysbios_family_arm_cc26xx_Timer_setNextTick__E
  000014b8    000014b8    00000004   00000004    r-- .const:ti_sysbios_rom_ROM_ti_sysbios_family_arm_cc26xx_Timer_setThreshold__I
  000014bc    000014bc    00000004   00000004    r-- .const:ti_sysbios_rom_ROM_ti_sysbios_family_arm_cc26xx_Timer_start__E
  000014c0    000014c0    00000004   00000004    r-- .const:ti_sysbios_rom_ROM_ti_sysbios_family_arm_cc26xx_TimestampProvider_get32__E
  000014c4    000014c4    00000004   00000004    r-- .const:ti_sysbios_rom_ROM_xdc_runtime_Startup_getState__I
  000014c8    000014c8    00000004   00000004    r-- .const:ti_sysbios_rom_ROM_xdc_runtime_System_SupportProxy_abort__E
  000014cc    000014cc    00000004   00000004    r-- .const:ti_sysbios_rom_ROM_xdc_runtime_System_SupportProxy_exit__E
  000014d0    000014d0    00000004   00000004    r-- .const:ti_sysbios_gates_GateMutex_Instance_State_sem__O
  000014d4    000014d4    00000004   00000004    r-- .const:ti_sysbios_knl_Clock_Module_State_clockQ__O
  000014d8    000014d8    00000004   00000004    r-- .const:ti_sysbios_knl_Mailbox_Instance_State_dataQue__O
  000014dc    000014dc    00000004   00000004    r-- .const:ti_sysbios_knl_Mailbox_Instance_State_dataSem__O
  000014e0    000014e0    00000004   00000004    r-- .const:ti_sysbios_knl_Mailbox_Instance_State_freeQue__O
  000014e4    000014e4    00000004   00000004    r-- .const:ti_sysbios_knl_Mailbox_Instance_State_freeSem__O
  000014e8    000014e8    00000004   00000004    r-- .const:ti_sysbios_knl_Semaphore_Instance_State_pendQ__O
  000014ec    000014ec    00000004   00000004    r-- .const:ti_sysbios_knl_Task_Module_State_inactiveQ__O
  000014f0    000014f0    00017018   00017018    r-x .text
  00018508    00018508    00000ab8   00000ab8    r-- config_const
  00018fc0    00018fc0    000004c0   000004c0    r-- .cinit
0001e000    0001e000    00001ae0   00001ae0    r-x
  0001e000    0001e000    00001000   00001000    r-- .TI.bound:NV_FLASH
  0001f000    0001f000    00000ae0   00000ae0    r-x flash_last_text
0001ffa8    0001ffa8    00000058   00000058    r--
  0001ffa8    0001ffa8    00000058   00000058    r-- .ccfg
20000100    20000100    00002d4c   00000000    rw-
  20000100    20000100    00000044   00000000    rw- .data:ti_sysbios_knl_Task_Module__state__V
  20000144    20000144    00000034   00000000    rw- .data:ti_sysbios_family_arm_m3_Hwi_Module__state__V
  20000178    20000178    0000002c   00000000    rw- .data:ti_sysbios_knl_Clock_Module__state__V
  200001a4    200001a4    00000024   00000000    rw- .data:ti_sysbios_BIOS_Module__state__V
  200001c8    200001c8    0000001c   00000000    rw- .data:ti_sysbios_knl_Swi_Module__state__V
  200001e4    200001e4    00000008   00000000    rw- .data:ti_sysbios_family_arm_cc26xx_Timer_Module__state__V
  200001ec    200001ec    00000004   00000000    rw- .data:ti_sysbios_family_arm_cc26xx_TimestampProvider_Module__state__V
  200001f0    200001f0    00000008   00000000    rw- .data:xdc_runtime_Startup_Module__state__V
  200001f8    200001f8    00000008   00000000    rw- .data:xdc_runtime_System_Module__state__V
  20000200    20000200    00000004   00000000    rw- .data:xdc_runtime_Memory_Module__state__V
  20000208    20000208    00001bde   00000000    rw- .data
  20001de8    20001de8    00001064   00000000    rw- .bss
20004b00    20004b00    00000500   00000000    rw-
  20004b00    20004b00    00000500   00000000    rw- .stack


SECTION ALLOCATION MAP

 output                                  attributes/
section   page    origin      length       input sections
--------  ----  ----------  ----------   ----------------
.const     0    0000003c    00000c30
                  0000003c    0000045c     hmac_global.obj (.const:$O12$$)
                  00000498    000001c0     fh_global.obj (.const:$O9$$)
                  00000658    000000fa     fh_global.obj (.const:FH_stateMatrix)
                  00000752    00000002     jdllc.obj (.const:keyUsageList$34)
                  00000754    000000cc     icall.obj (.const:$O2$$)
                  00000820    00000088     jdllc.obj (.const:$O25$$)
                  000008a8    0000006e     hmac_global.obj (.const:macIdleSt)
                  00000916    0000006e     hmac_global.obj (.const:macScanningSt)
                  00000984    00000050     CC13X0_LAUNCHXL.obj (.const:$O4$$)
                  000009d4    0000004c     drivers_cc13x0.aem3 : PowerCC26XX.oem3 (.const:resourceDB)
                  00000a20    00000048     app_pem3.oem3 (.const:.string)
                  00000a68    00000044     drivers_cc13x0.aem3 : UARTCC26XX.oem3 (.const:$O1$$)
                  00000aac    00000028                         : UARTCC26XX.oem3 (.const:UARTCC26XX_fxnTable)
                  00000ad4    00000028     CC13X0_LAUNCHXL.obj (.const:uartCC26XXHWAttrs)
                  00000afc    00000024     drivers_cc13x0.aem3 : UART.oem3 (.const:UART_defaultParams)
                  00000b20    00000024     app_pem3.oem3 (.const:xdc_runtime_Startup_sfxnTab__A)
                  00000b44    00000020     jdllc.obj (.const:keyDeviceList$34)
                  00000b64    0000001c     rf_multiMode_cc13x0.aem3 : RFCC26XX_multiMode.oem3 (.const:RF_defaultParams)
                  00000b80    00000018     CC13X0_LAUNCHXL.obj (.const:PowerCC26XX_config)
                  00000b98    00000018     driverlib.lib : rfc.obj (.const:rfc_defaultIrqAddr$106)
                  00000bb0    00000013     macstack.obj (.const:.string:msacbackSizeTable)
                  00000bc3    00000001     app_pem3.oem3 (.const:xdc_runtime_Text_charTab__A)
                  00000bc4    00000012     app_pem3.oem3 (.const:xdc_runtime_Startup_sfxnRts__A)
                  00000bd6    00000002     app_pem3.oem3 (.const:xdc_runtime_Text_registryModsLastId__C)
                  00000bd8    00000010     CC13X0_LAUNCHXL.obj (.const:cryptoCC26XXHWAttrs)
                  00000be8    0000000c     CC13X0_LAUNCHXL.obj (.const:UART_config)
                  00000bf4    0000000c     app_pem3.oem3 (.const:xdc_runtime_Startup_firstFxns__A)
                  00000c00    0000000a     CC13X0_LAUNCHXL.obj (.const)
                  00000c0a    00000002     app_pem3.oem3 (.const:xdc_runtime_Text_unnamedModsLastId__C)
                  00000c0c    00000008     maclib_secure.a : mac_rx.obj (.const:$O35$$)
                  00000c14    00000008     main.obj (.const:.string:dummyExtAddr$36)
                  00000c1c    00000008     CC13X0_LAUNCHXL.obj (.const:CryptoCC26XX_config)
                  00000c24    00000008     CC13X0_LAUNCHXL.obj (.const:PINCC26XX_hwAttrs)
                  00000c2c    00000008     app_pem3.oem3 (.const:ti_sysbios_knl_Idle_funcList__A)
                  00000c34    00000006     ssf.obj (.const:nvResetId$38)
                  00000c3a    00000002     --HOLE-- [fill = 0]
                  00000c3c    00000004     icall_cc2650.obj (.const:events$1$1)
                  00000c40    00000004     osaltasks.obj (.const:tasksArr)
                  00000c44    00000004     app_pem3.oem3 (.const:ti_sysbios_family_arm_cc26xx_Timer_funcHookCH1__C)
                  00000c48    00000004     app_pem3.oem3 (.const:ti_sysbios_family_arm_cc26xx_Timer_funcHookCH2__C)
                  00000c4c    00000004     app_pem3.oem3 (.const:ti_sysbios_family_arm_m3_Hwi_swiDisable__C)
                  00000c50    00000004     app_pem3.oem3 (.const:ti_sysbios_family_arm_m3_Hwi_swiRestoreHwi__C)
                  00000c54    00000004     app_pem3.oem3 (.const:ti_sysbios_knl_Clock_tickPeriod__C)
                  00000c58    00000004     app_pem3.oem3 (.const:ti_sysbios_knl_Clock_triggerClock__C)
                  00000c5c    00000004     app_pem3.oem3 (.const:xdc_runtime_SysCallback_putchFxn__C)
                  00000c60    00000004     app_pem3.oem3 (.const:xdc_runtime_SysCallback_readyFxn__C)
                  00000c64    00000004     app_pem3.oem3 (.const:xdc_runtime_System_extendFxn__C)
                  00000c68    00000004     app_pem3.oem3 (.const:xdc_runtime_Text_visitRopeFxn__C)

.text      0    000014f0    00017018
                  000014f0    00000994     maclib_secure.a : mac.obj (.text:macRxCbSubG$75)
                  00001e84    0000064c                     : mac_rx.obj (.text:rxPayloadIsr$80)
                  000024d0    00000494     driverlib.lib : setup.obj (.text:TrimAfterColdResetWakeupFromShutDown$47)
                  00002964    00000494     icall_startup.obj (.text:startup_entry)
                  00002df8    0000045c     maclib_secure.a : fh_ie.obj (.text:FHIE_parsePie)
                  00003254    00000444     main.obj (.text:taskFxn)
                  00003698    00000394     maclib_secure.a : macwrapper.obj (.text:macWrapperAddDevice)
                  00003a2c    0000038c                     : mac_mgmt.obj (.text:macBuildHeader)
                  00003db8    00000388                     : mac_radio.obj (.text:macRadioInitSubG)
                  00004140    00000384     sensor.obj (.text:Sensor_process)
                  000044c4    00000374     rf_multiMode_cc13x0.aem3 : RFCC26XX_multiMode.oem3 (.text:RF_fsmActiveState)
                  00004838    00000370     maclib_secure.a : mac_mgmt.obj (.text:MAC_MlmeResetReq)
                  00004ba8    00000366     api_mac.obj (.text:processIncomingICallMsg$32)
                  00004f0e    00000002     maclib_secure.a : fh_data.obj (.text:FHDATA_startEDFETimer)
                  00004f10    0000030c     drivers_cc13x0.aem3 : PowerCC26XX_calibrateRCOSC.oem3 (.text:PowerCC26XX_auxISR)
                  0000521c    0000030c     rom_sysbios.aem3 : rom_sysbios.obj (.text:xdc_runtime_System_doPrint__I)
                  00005528    000002dc     maclib_secure.a : mac_radio_tx.obj (.text:macRadioTxGoSubG$79)
                  00005804    000002d4                     : mac_pwr.obj (.text:macPwrVote)
                  00005ad8    000002c4                     : fh_api.obj (.text:FHAPI_getTxParams_old)
                  00005d9c    000002c0                     : fh_ie.obj (.text:FHIE_gen)
                  0000605c    000002b8                     : fh_ie.obj (.text:FHIE_genPieContent)
                  00006314    000002b8     osal.obj (.text:osal_start_system)
                  000065cc    00000280     maclib_secure.a : mac_data.obj (.text:MAC_McpsDataReq)
                  0000684c    00000278                     : fh_api.obj (.text:FHAPI_start)
                  00006ac4    00000268     sensor.obj (.text:processSensorMsgEvt$37)
                  00006d2c    00000260     maclib_secure.a : mac_security_pib.obj (.text:MAC_MlmeSetSecurityReq)
                  00006f8c    00000254                     : fh_api.obj (.text:FHAPI_completeRxCb)
                  000071e0    0000024c     sensor.obj (.text:dataIndCB$37)
                  0000742c    0000023c     driverlib.lib : sys_ctrl.obj (.text:NOROM_SysCtrlSetRechargeBeforePowerDown)
                  00007668    00000224     drivers_cc13x0.aem3 : PowerCC26XX.oem3 (.text:Power_sleep)
                  0000788c    00000222     maclib_secure.a : mac_security.obj (.text:macIncomingFrameSecurityMaterialRetrieval)
                  00007aae    00000002                     : fh_util.obj (.text:FHUTIL_noAction)
                  00007ab0    00000214                     : mac_mgmt.obj (.text:macBuildCommonReq)
                  00007cc4    00000208     drivers_cc13x0.aem3 : CryptoCC26XX.oem3 (.text:cryptoTransactionExecute)
                  00007ecc    00000200     maclib_secure.a : mac_device.obj (.text:macApiAssociateReq)
                  000080cc    000001f0                     : fh_api.obj (.text:FHAPI_sendData)
                  000082bc    000001e8     rf_multiMode_cc13x0.aem3 : RFCC26XX_multiMode.oem3 (.text:RF_open)
                  000084a4    000001d4     macstack.obj (.text:macStackEventLoop)
                  00008678    000001cc     maclib_secure.a : fh_ie.obj (.text:FHIE_extractPie)
                  00008844    000001c8                     : mac_scan.obj (.text:macApiScanReq)
                  00008a0c    000001c0                     : mac_security_pib.obj (.text:MAC_MlmeGetSecurityReq)
                  00008bcc    000001bc                     : mac_beacon_device.obj (.text:macRxBeaconCritical)
                  00008d88    000001b8     drivers_cc13x0.aem3 : PINCC26XX.oem3 (.text:PIN_init)
                  00008f40    000001b4     rf_multiMode_cc13x0.aem3 : RFCC26XX_multiMode.oem3 (.text:RF_scheduleCmd)
                  000090f4    000001b0     maclib_secure.a : mac_data.obj (.text:macApiDataReq)
                  000092a4    000001ac                     : fh_ie.obj (.text:FHIE_parseCommonInformation)
                  00009450    0000019c                     : fh_pib.obj (.text:FHPIB_set)
                  000095ec    00000198                     : fh_nt.obj (.text:FHNT_getEntry)
                  00009784    00000198                     : macwrapper.obj (.text:macWrapperAddKeyInitFCtr)
                  0000991c    00000194                     : mac_tx.obj (.text:macTxFrame)
                  00009ab0    00000190     drivers_cc13x0.aem3 : PowerCC26XX_calibrateRCOSC.oem3 (.text:PowerCC26XX_doCalibrate)
                  00009c40    00000188     maclib_secure.a : mac_pib.obj (.text:MAC_MlmeSetReq)
                  00009dc8    00000184                     : mac_ie_build.obj (.text:macBuildPayloadIes)
                  00009f4c    0000017c                     : mac_data.obj (.text:macTxCompleteCallback)
                  0000a0c8    00000178     driverlib.lib : crypto.obj (.text:NOROM_CRYPTOCcmInvAuthDecrypt)
                  0000a240    00000174     rf_multiMode_cc13x0.aem3 : RFCC26XX_multiMode.oem3 (.text:RF_fsmSetupState)
                  0000a3b4    00000170     driverlib.lib : crypto.obj (.text:NOROM_CRYPTOCcmAuthEncrypt)
                  0000a524    00000164     maclib_secure.a : mac_mgmt.obj (.text:macTxCsmaDelay)
                  0000a688    0000015c                     : fh_api.obj (.text:FHAPI_completeTxCb)
                  0000a7e4    0000015c     drivers_cc13x0.aem3 : UARTCC26XX.oem3 (.text:UARTCC26XX_open)
                  0000a940    00000158     maclib_secure.a : mac_radio_tx.obj (.text:macRadioCsmaTxCbSubG$79)
                  0000aa98    00000148     drivers_cc13x0.aem3 : UARTCC26XX.oem3 (.text:UARTCC26XX_hwiIntFxn)
                  0000abe0    00000148     maclib_secure.a : mac_mgmt.obj (.text:macApiDisassociateReq)
                  0000ad28    00000144     rf_multiMode_cc13x0.aem3 : RFCC26XX_multiMode.oem3 (.text:RF_radioOpDoneCb)
                  0000ae6c    00000140     nvocop.obj (.text:compactPage$29)
                  0000afac    00000138     rf_multiMode_cc13x0.aem3 : RFCC26XX_multiMode.oem3 (.text:RF_ratSetupChannel)
                  0000b0e4    00000134                              : RFCC26XX_multiMode.oem3 (.text:RF_hwiCpe0Active)
                  0000b218    00000134     maclib_secure.a : mac_beacon_device.obj (.text:macAutoPoll)
                  0000b34c    00000130     sensor.obj (.text:Sensor_sendMsg)
                  0000b47c    00000130     maclib_secure.a : mac.obj (.text:macSendReceiveCmdSubG)
                  0000b5ac    00000128                     : fh_nt.obj (.text:FHNT_purgeTimerIsrCb)
                  0000b6d4    00000124     rf_multiMode_cc13x0.aem3 : RFCC26XX_multiMode.oem3 (.text:RF_fsmChangePhyState)
                  0000b7f8    00000124     maclib_secure.a : mac_mgmt.obj (.text:macApiWSAsyncReq)
                  0000b91c    00000120                     : mac_data.obj (.text:macAllocTxBuffer)
                  0000ba3c    00000120                     : mac_beacon_device.obj (.text:macApiSyncReq)
                  0000bb5c    0000011c     drivers_cc13x0.aem3 : UARTCC26XX.oem3 (.text:UARTCC26XX_read)
                  0000bc78    0000011c     jdllc.obj (.text:assocCnfCb$34)
                  0000bd94    0000011c     sensor.obj (.text:dataCnfCB$37)
                  0000beb0    00000114     drivers_cc13x0.aem3 : PowerCC26XX.oem3 (.text:Power_init)
                  0000bfc4    00000110     maclib_secure.a : mac.obj (.text:macSetupRATChanCompare)
                  0000c0d4    00000108     ssf.obj (.text:Ssf_networkUpdate)
                  0000c1dc    00000100     maclib_secure.a : fh_nt.obj (.text:FHNT_getRemoveEntryFromTemp)
                  0000c2dc    00000100     rf_multiMode_cc13x0.aem3 : RFCC26XX_multiMode.oem3 (.text:RF_close)
                  0000c3dc    00000100     maclib_secure.a : mac.obj (.text:macRatCb_B)
                  0000c4dc    000000fc     drivers_cc13x0.aem3 : UARTCC26XX.oem3 (.text:UARTCC26XX_write)
                  0000c5d8    000000f8     maclib_secure.a : fh_ie.obj (.text:FHIE_genCommonInformation)
                  0000c6d0    000000f8     app_pem3.oem3 (.text:xdc_runtime_System_printfExtend__I)
                  0000c7c8    000000f4     rf_multiMode_cc13x0.aem3 : RFCC26XX_multiMode.oem3 (.text:RF_abortCmd)
                  0000c8bc    000000f4                              : RFCC26XX_multiMode.oem3 (.text:RF_getInfo)
                  0000c9b0    000000f4     maclib_secure.a : mac_radio_tx.obj (.text:macRadioTxPrepCsmaUnslottedSubG)
                  0000caa4    000000f4                     : mac_mgmt.obj (.text:macSetDefaultsByPhyID)
                  0000cb98    000000f0                     : fh_mgr.obj (.text:FHMGR_bcTimerIsrCb)
                  0000cc88    000000f0     driverlib.lib : rfc.obj (.text:NOROM_RFCOverrideUpdate)
                  0000cd78    000000f0                   : setup.obj (.text:NOROM_SetupTrimDevice)
                  0000ce68    000000f0     rf_multiMode_cc13x0.aem3 : RFCC26XX_multiMode.oem3 (.text:RF_pendCmd)
                  0000cf58    000000f0     maclib_secure.a : mac_radio_tx.obj (.text:macRadioTxPrepCsmaSlottedSubG)
                  0000d048    000000ec                     : mac_device.obj (.text:macDeviceReset)
                  0000d134    000000ec                     : mac_scan.obj (.text:macScanNextChan)
                  0000d220    000000e8                     : fh_ie.obj (.text:FHIE_parseHie)
                  0000d308    000000e4                     : fh_api.obj (.text:FHAPI_getTxParams)
                  0000d3ec    000000e4                     : fh_nt.obj (.text:FHNT_addTempEUI)
                  0000d4d0    000000e4     dpl_cc13x0.aem3 : PowerCC26XX_tirtos.oem3 (.text:PowerCC26XX_standbyPolicy)
                  0000d5b4    000000e4     maclib_secure.a : mac_radio_tx.obj (.text:macRadioTxAck$79)
                  0000d698    000000e0     rf_multiMode_cc13x0.aem3 : RFCC26XX_multiMode.oem3 (.text:RF_fsmPowerUpState)
                  0000d778    000000e0                              : RFCC26XX_multiMode.oem3 (.text:RF_requestAccess)
                  0000d858    000000e0     maclib_secure.a : mac_beacon.obj (.text:macBeaconSetSched)
                  0000d938    000000e0                     : mac_coord.obj (.text:macIndirectSend)
                  0000da18    000000dc     drivers_cc13x0.aem3 : PINCC26XX.oem3 (.text:PINCC26XX_setIoCfg)
                  0000daf4    000000d8     maclib_secure.a : mac_mgmt.obj (.text:macCommStatusInd)
                  0000dbcc    000000d4     drivers_cc13x0.aem3 : CryptoCC26XX.oem3 (.text:CryptoCC26XX_open)
                  0000dca0    000000d4     driverlib.lib : rfc.obj (.text:NOROM_RFCRfTrimRead)
                  0000dd74    000000d4     rf_multiMode_cc13x0.aem3 : RFCC26XX_multiMode.oem3 (.text:RF_howToSchedule)
                  0000de48    000000d4     maclib_secure.a : mac_radio_tx.obj (.text:macRadioLbtTxCb)
                  0000df1c    000000d4                     : mac.obj (.text:macRatCb_A)
                  0000dff0    000000d0     macstack.obj (.text:MAC_CbackEvent)
                  0000e0c0    000000d0     maclib_secure.a : mac_data.obj (.text:macDataTxSend)
                  0000e190    000000d0                     : mac_scan.obj (.text:macScanRxBeacon)
                  0000e260    000000d0                     : mac_main.obj (.text:macSendDataMsg)
                  0000e330    000000cc     driverlib.lib : crypto.obj (.text:NOROM_CRYPTOAesCbc)
                  0000e3fc    000000cc     nvocop.obj (.text:NVOCOP_writeItem)
                  0000e4c8    000000cc     rf_multiMode_cc13x0.aem3 : RFCC26XX_multiMode.oem3 (.text:RF_swiHw)
                  0000e594    000000cc     maclib_secure.a : mac_security.obj (.text:macOutgoingFrameKeyDescRetrieval)
                  0000e660    000000c8     rf_multiMode_cc13x0.aem3 : RFCC26XX_multiMode.oem3 (.text:RF_dispatchNextCmd)
                  0000e728    000000c8     maclib_secure.a : mac_ie_build.obj (.text:macBuildHeaderIes)
                  0000e7f0    000000c8                     : mac_security.obj (.text:macCcmStarTransform)
                  0000e8b8    000000c8                     : mac_data.obj (.text:macDataTxEnqueue)
                  0000e980    000000c4                     : fh_data.obj (.text:FHDATA_procASYNCReq)
                  0000ea44    000000c4     jdllc.obj (.text:Jdllc_init)
                  0000eb08    000000c4     maclib_secure.a : mac.obj (.text:macSendFsCmd)
                  0000ebcc    000000be                     : fh_ie.obj (.text:FHIE_getLen)
                  0000ec8a    00000002     rf_multiMode_cc13x0.aem3 : RFCC26XX_multiMode.oem3 (.text:RF_defaultCallback)
                  0000ec8c    000000bc     maclib_secure.a : fh_nt.obj (.text:FHNT_AddDeviceCB)
                  0000ed48    000000bc                     : mac_scan.obj (.text:MAC_MlmeScanReq)
                  0000ee04    000000bc     drivers_cc13x0.aem3 : PowerCC26XX.oem3 (.text:Power_releaseDependency)
                  0000eec0    000000bc     maclib_secure.a : mac_tx.obj (.text:macTxFrameIsr)
                  0000ef7c    000000bc     jdllc.obj (.text:pollCnfCb$34)
                  0000f038    000000b8     maclib_secure.a : fh_ie.obj (.text:FHIE_getPieContentLen)
                  0000f0f0    000000b8     rf_multiMode_cc13x0.aem3 : RFCC26XX_multiMode.oem3 (.text:RF_ieeeExtension)
                  0000f1a8    000000b8     maclib_secure.a : mac_mgmt.obj (.text:macBuildBeaconNotifyInd)
                  0000f260    000000b8                     : mac_rx.obj (.text:rxPostRxUpdates$80)
                  0000f318    000000b4     drivers_cc13x0.aem3 : PowerCC26XX.oem3 (.text:Power_setDependency)
                  0000f3cc    000000b4     rf_multiMode_cc13x0.aem3 : RFCC26XX_multiMode.oem3 (.text:RF_control)
                  0000f480    000000ac                              : RFCC26XX_multiMode.oem3 (.text:RF_schChkCmdInsert)
                  0000f52c    000000ac     maclib_secure.a : mac_tx.obj (.text:macTxChannelBusyCallback)
                  0000f5d8    000000ac     api_mac.obj (.text:processBeaconNotifyInd$32)
                  0000f684    000000ac     jdllc.obj (.text:processCoordRealign$34)
                  0000f730    000000aa     maclib_secure.a : fh_ie.obj (.text:FHIE_genExcludedChannelRanges)
                  0000f7da    00000002     rtsv7M3_T_le_eabi.lib : _lock.c.obj (.text:_nop)
                  0000f7dc    000000a6     rom_sysbios.aem3 : rom_sysbios.obj (.text:xdc_runtime_Text_putSite__E)
                  0000f882    00000002     drivers_cc13x0.aem3 : PowerCC26XX.oem3 (.text:emptyClockFunc)
                  0000f884    000000a4     driverlib.lib : crypto.obj (.text:NOROM_CRYPTOAesEcb)
                  0000f928    000000a4     rf_multiMode_cc13x0.aem3 : RFCC26XX_multiMode.oem3 (.text:RF_ratRestartChannels)
                  0000f9cc    000000a4     drivers_cc13x0.aem3 : UARTCC26XX.oem3 (.text:UARTCC26XX_initHw)
                  0000fa70    000000a4     sensor.obj (.text:jdllcJoinedCb$37)
                  0000fb14    000000a4     maclib_secure.a : mac_beacon_device.obj (.text:macBeaconSyncLoss)
                  0000fbb8    000000a4     main.obj (.text:main)
                  0000fc5c    000000a4     osal.obj (.text:osal_set_event)
                  0000fd00    000000a4     drivers_cc13x0.aem3 : PowerCC26XX.oem3 (.text:switchXOSCHFclockFunc)
                  0000fda4    000000a0     maclib_secure.a : fh_ie.obj (.text:FHIE_getChannelPlan)
                  0000fe44    000000a0     ssf.obj (.text:Ssf_findBlackListIndex)
                  0000fee4    000000a0     auto_init.aem3 : auto_init.oem3 (.text)
                  0000ff84    000000a0     jdllc.obj (.text:beaconNotifyIndCb$34)
                  00010024    000000a0     nvocop.obj (.text:findItemOffset$29)
                  000100c4    000000a0     maclib_secure.a : mac_tx.obj (.text:txCsmaPrep$84)
                  00010164    000000a0     nvocop.obj (.text:writeItem$29)
                  00010204    0000009c     maclib_secure.a : fh_api.obj (.text:FHAPI_reset)
                  000102a0    0000009c                     : mac_radio_tx.obj (.text:macRadioTxPrepLbt)
                  0001033c    0000009c     rtsv7M3_T_le_eabi.lib : memcpy_t2.asm.obj (.text)
                  000103d8    00000098     maclib_secure.a : fh_data.obj (.text:FHDATA_getPktFromQueue)
                  00010470    00000098                     : fh_mgr.obj (.text:FHMGR_updateRadioBCChannel)
                  00010508    00000098     nvocop.obj (.text:NVOCOP_deleteItem)
                  000105a0    00000098     drivers_cc13x0.aem3 : PINCC26XX.oem3 (.text:PIN_open)
                  00010638    00000098     rf_multiMode_cc13x0.aem3 : RFCC26XX_multiMode.oem3 (.text:RF_calculateDispatchTime)
                  000106d0    00000098     drivers_cc13x0.aem3 : UARTCC26XX.oem3 (.text:UARTCC26XX_initIO)
                  00010768    00000098                         : UARTCC26XX.oem3 (.text:UARTCC26XX_swiIntFxn)
                  00010800    00000098     maclib_secure.a : mac_mgmt.obj (.text:macRxBeacon)
                  00010898    00000098                     : mac_scan.obj (.text:macScanRxCoordRealign)
                  00010930    00000098     rom_sysbios.aem3 : rom_sysbios.obj (.text:ti_sysbios_knl_Clock_workFuncDynamic__E)
                  000109c8    00000098                      : rom_sysbios.obj (.text:xdc_runtime_Text_putMod__E)
                  00010a60    00000096     rtsv7M3_T_le_eabi.lib : ull_div_t2.asm.obj (.text)
                  00010af6    00000002     maclib_secure.a : mac_pwr.obj (.text:macApiPwrOnReq)
                  00010af8    00000094                     : fh_nt.obj (.text:FHNT_getNTIndexFromTempIndex)
                  00010b8c    00000094     driverlib.lib : crypto.obj (.text:NOROM_CRYPTOAesLoadKey)
                  00010c20    00000094     board_led.obj (.text:board_led_blinkTimeoutCB$7)
                  00010cb4    00000094     maclib_secure.a : mac_main.obj (.text:macCbackForEvent)
                  00010d48    00000094                     : mac_hl_patch.obj (.text:macCcmDecrypt)
                  00010ddc    00000094                     : mac_security.obj (.text:macCcmStarInverseTransform)
                  00010e70    00000090     rf_multiMode_cc13x0.aem3 : RFCC26XX_multiMode.oem3 (.text:RF_discardPendCmd)
                  00010f00    00000090     jdllc.obj (.text:scanCnfCb$34)
                  00010f90    00000090     rom_sysbios.aem3 : rom_sysbios.obj (.text:ti_sysbios_family_arm_cc26xx_Timer_start__E)
                  00011020    0000008c     jdllc.obj (.text:Jdllc_securityInit)
                  000110ac    0000008c     drivers_cc13x0.aem3 : UARTCC26XX.oem3 (.text:UARTCC26XX_close)
                  00011138    0000008c     api_mac.obj (.text:copyDataInd$32)
                  000111c4    0000008c     maclib_secure.a : mac_hl_patch.obj (.text:macCcmEncrypt)
                  00011250    0000008c                     : mac_data.obj (.text:macDataTxComplete)
                  000112dc    0000008a     drivers_cc13x0.aem3 : CryptoCC26XX.oem3 (.text:CryptoCC26XX_allocateKey)
                  00011366    0000008a     maclib_secure.a : fh_ie.obj (.text:FHIE_extractHie)
                  000113f0    00000088     driverlib.lib : osc.obj (.text:NOROM_OSCHF_GetStartupTime)
                  00011478    00000088     drivers_cc13x0.aem3 : UARTCC26XX.oem3 (.text:UARTCC26XX_writeCancel)
                  00011500    00000088     maclib_secure.a : mac_mcu.obj (.text:macMcuBitReverse)
                  00011588    00000088     osal.obj (.text:osal_msg_receive)
                  00011610    00000084     rf_multiMode_cc13x0.aem3 : RFCC26XX_multiMode.oem3 (.text:RF_issueRadioFreeCb)
                  00011694    00000084     maclib_secure.a : mac_device.obj (.text:macRxAssocRsp)
                  00011718    00000080     rf_multiMode_cc13x0.aem3 : RFCC26XX_multiMode.oem3 (.text:RF_hwiHw)
                  00011798    00000080     maclib_secure.a : mac_radio.obj (.text:macRadioUpdateTxPower)
                  00011818    00000080                     : mac_timer.obj (.text:macTimerCancel)
                  00011898    00000080     mac_user_config.obj (.text:rf_patch_rfe_genfsk$35)
                  00011918    00000080     maclib_secure.a : mac_tx.obj (.text:txComplete)
                  00011998    0000007c     board_led.obj (.text:Board_Led_control)
                  00011a14    0000007c     driverlib.lib : crypto.obj (.text:NOROM_CRYPTOCcmInvAuthDecryptResultGet)
                  00011a90    0000007c     rf_multiMode_cc13x0.aem3 : RFCC26XX_multiMode.oem3 (.text:RF_ratFreeChannel)
                  00011b0c    0000007c     maclib_secure.a : mac_radio.obj (.text:macRadioUpdateChannelRx)
                  00011b88    0000007c                     : mac_scan.obj (.text:macScanStartTimer)
                  00011c04    0000007c                     : mac_beacon_device.obj (.text:macTrackPeriodCallback)
                  00011c80    0000007c     jdllc.obj (.text:syncLossCb$34)
                  00011cfc    0000007a     rtsv7M3_T_le_eabi.lib : memset_t2.asm.obj (.text)
                  00011d76    00000002     maclib_secure.a : mac.obj (.text:macClientSwitchCb)
                  00011d78    00000078                     : mac_beacon.obj (.text:macBeaconCheckTxTime)
                  00011df0    00000078                     : mac_radio_tx.obj (.text:macRadioTxAckCb$79)
                  00011e68    00000078                     : mac_radio.obj (.text:macRadioUpdateChannel)
                  00011ee0    00000078                     : mac_beacon_device.obj (.text:macTrackTimeoutCallback)
                  00011f58    00000078     osal_pwrmgr.obj (.text:osal_pwrmgr_task_state)
                  00011fd0    00000078     jdllc.obj (.text:sendAssocReq$34)
                  00012048    00000078     drivers_cc13x0.aem3 : UARTCC26XX.oem3 (.text:writeTxFifoFlush)
                  000120c0    00000076     maclib_secure.a : mac_security.obj (.text:macKeyDescriptorLookup)
                  00012136    00000002                     : mac_mcu.obj (.text:macMcuInit)
                  00012138    00000074                     : fh_util.obj (.text:FHUTIL_getCurBfio)
                  000121ac    00000074     icall_cc2650.obj (.text:ICallPlatform_pwrUpdActivityCounter)
                  00012220    00000074     rf_multiMode_cc13x0.aem3 : RFCC26XX_multiMode.oem3 (.text:RF_yield)
                  00012294    00000074     maclib_secure.a : mac_mcu.obj (.text:macMcuOverflowSetCompare)
                  00012308    00000074                     : mac_mcu.obj (.text:macMcuOverflowSetPeriod)
                  0001237c    00000070                     : fh_api.obj (.text:FHAPI_startBS)
                  000123ec    00000070                     : fh_dh1cf.obj (.text:FHDH1CF_getBCChannelNum)
                  0001245c    00000070     jdllc.obj (.text:dataCnfCb$34)
                  000124cc    00000070     maclib_secure.a : mac_tx.obj (.text:macTxAckReceivedCallback)
                  0001253c    00000070     nvocop.obj (.text:writeWord$29)
                  000125ac    0000006e     rtsv7M3_T_le_eabi.lib : ll_div_t2.asm.obj (.text)
                  0001261a    00000002     maclib_secure.a : mac_mgmt.obj (.text:macNoAction)
                  0001261c    0000006d     rom_sysbios.aem3 : rom_sysbios.obj (.text:xdc_runtime_System_formatNum__I)
                  00012689    00000001     --HOLE-- [fill = 0]
                  0001268a    00000002     maclib_secure.a : mac_symbol_timer.obj (.text:macSymbolTimerICallPwrNotify$83)
                  0001268c    0000006c                     : fh_nt.obj (.text:FHNT_putEntry)
                  000126f8    0000006c     drivers_cc13x0.aem3 : PowerCC26XX_calibrateRCOSC.oem3 (.text:PowerCC26XX_initiateCalibration)
                  00012764    0000006c     rf_multiMode_cc13x0.aem3 : RFCC26XX_multiMode.oem3 (.text:RF_ratDisableChannel)
                  000127d0    0000006c     nvocop.obj (.text:findItemInCache$29)
                  0001283c    0000006c     maclib_secure.a : mac_mgmt.obj (.text:macDisassocComplete)
                  000128a8    0000006c                     : mac_main.obj (.text:macExecute)
                  00012914    0000006c                     : mac_main.obj (.text:macSendMsg)
                  00012980    00000068                     : fh_data.obj (.text:FHDATA_purgePktFromQueue)
                  000129e8    00000068     driverlib.lib : sys_ctrl.obj (.text:NOROM_SysCtrlAdjustRechargeAfterPowerDown)
                  00012a50    00000068                   : sys_ctrl.obj (.text:NOROM_SysCtrl_DCDC_VoltageConditionalControl)
                  00012ab8    00000068     drivers_cc13x0.aem3 : UARTCC26XX.oem3 (.text:UARTCC26XX_readCancel)
                  00012b20    00000068     rtsv7M3_T_le_eabi.lib : copy_decompress_lzss.c.obj (.text:decompress:lzss:__TI_decompress_lzss)
                  00012b88    00000068     drivers_cc13x0.aem3 : PowerCC26XX.oem3 (.text:lfClockReadyCallback)
                  00012bf0    00000068     maclib_secure.a : mac_radio_tx.obj (.text:macRadioSendImmAckSubG$79)
                  00012c58    00000068                     : mac_rx_onoff.obj (.text:macRxOn)
                  00012cc0    00000068     jdllc.obj (.text:sendScanReq$34)
                  00012d28    00000068     maclib_secure.a : mac_tx.obj (.text:txGo$84)
                  00012d90    00000068     jdllc.obj (.text:updateState$34)
                  00012df8    00000064     driverlib.lib : osc.obj (.text:NOROM_OSCHF_AttemptToSwitchToXosc)
                  00012e5c    00000064                   : setup_rom.obj (.text:NOROM_SetupGetTrimForAnabypassValue1)
                  00012ec0    00000064     rf_multiMode_cc13x0.aem3 : RFCC26XX_multiMode.oem3 (.text:RF_checkForPreemption)
                  00012f24    00000064     drivers_cc13x0.aem3 : PowerCC26XX.oem3 (.text:configureXOSCHF)
                  00012f88    00000064     maclib_secure.a : mac_device.obj (.text:macAssocDataRxInd)
                  00012fec    00000064                     : mac_device.obj (.text:macRxCoordRealign)
                  00013050    00000064                     : mac_mgmt.obj (.text:macRxDisassoc)
                  000130b4    00000064                     : mac_symbol_timer.obj (.text:macSymbolTimerInit)
                  00013118    00000064     osal.obj (.text:osal_msg_enqueue_push$19)
                  0001317c    00000062     maclib_secure.a : mac_mgmt.obj (.text:macBuildWSAsyncMsg)
                  000131de    00000002     rtsv7M3_T_le_eabi.lib : div0.asm.obj (.text)
                  000131e0    00000060     maclib_secure.a : fh_ie.obj (.text:FHIE_getCcaSfdTime)
                  00013240    00000060     driverlib.lib : osc.obj (.text:NOROM_OSCClockSourceSet)
                  000132a0    00000060     drivers_cc13x0.aem3 : PowerCC26XX.oem3 (.text:PowerCC26XX_calibrate)
                  00013300    00000060     rf_multiMode_cc13x0.aem3 : RFCC26XX_multiMode.oem3 (.text:RF_dispatchNextEvent)
                  00013360    00000060                              : RFCC26XX_multiMode.oem3 (.text:RF_getCurrentTime)
                  000133c0    00000060     ssf.obj (.text:Ssf_getNetworkInfo)
                  00013420    00000060     drivers_cc13x0.aem3 : UARTCC26XX.oem3 (.text:UARTCC26XX_control)
                  00013480    00000060     maclib_secure.a : mac_radio_tx.obj (.text:macRadioTxBackoffBoundary)
                  000134e0    00000060                     : mac_rx.obj (.text:macRxHaltCleanup)
                  00013540    00000060                     : mac_scan.obj (.text:macScanComplete)
                  000135a0    00000060     osal.obj (.text:osal_msg_send)
                  00013600    0000005f     rom_sysbios.aem3 : rom_sysbios.obj (.text:xdc_runtime_Text_putLab__E)
                  0001365f    00000001     --HOLE-- [fill = 0]
                  00013660    0000005e     maclib_secure.a : fh_mgr.obj (.text:FHMGR_updateRadioUCChannel)
                  000136be    00000002     rom_sysbios.aem3 : rom_sysbios.obj (.text:ti_sysbios_BIOS_linkedWithIncorrectBootLibrary__E)
                  000136c0    0000005c     jdllc.obj (.text:Jdllc_addSecDevice)
                  0001371c    0000005c     drivers_cc13x0.aem3 : PowerCC26XX_calibrateRCOSC.oem3 (.text:PowerCC26XX_RCOSC_clockFunc)
                  00013778    0000005c     rf_multiMode_cc13x0.aem3 : RFCC26XX_multiMode.oem3 (.text:RF_hwiCpe0PowerFsm)
                  000137d4    0000005c                              : RFCC26XX_multiMode.oem3 (.text:RF_syncCb)
                  00013830    0000005c     maclib_secure.a : mac_device.obj (.text:macPollDataRxInd)
                  0001388c    0000005c     app_pem3.oem3 (.text:xdc_runtime_Startup_getState__I)
                  000138e8    00000058     maclib_secure.a : fh_data.obj (.text:FHDATA_requeuePkt)
                  00013940    00000058                     : fh_nt.obj (.text:FHNT_DelDeviceCB)
                  00013998    00000058                     : fh_util.obj (.text:FHUTIL_getBitCounts)
                  000139f0    00000058                     : mac_mgmt.obj (.text:MAC_ResumeReq)
                  00013a48    00000058     drivers_cc13x0.aem3 : PINCC26XX.oem3 (.text:PIN_remove)
                  00013aa0    00000058     rf_multiMode_cc13x0.aem3 : RFCC26XX_multiMode.oem3 (.text:RF_TxPowerTable_findValue)
                  00013af8    00000058                              : RFCC26XX_multiMode.oem3 (.text:RF_cmdDispatchTime)
                  00013b50    00000058     mac_user_config.obj (.text:applyGenfskPatch$35)
                  00013ba8    00000058     maclib_secure.a : mac_rx_onoff.obj (.text:macRxOffRequest)
                  00013c00    00000058                     : mac_timer.obj (.text:macTimerAddTimer)
                  00013c58    00000058                     : mac_timer.obj (.text:macTimerUpdateSymbolTimer)
                  00013cb0    00000056                     : mac_data.obj (.text:macFrameDurationSubG)
                  00013d06    00000054     drivers_cc13x0.aem3 : CryptoCC26XX.oem3 (.text:CryptoCC26XX_close)
                  00013d5a    00000002     app_pem3.oem3 (.text:ti_sysbios_BIOS_nullFunc__I)
                  00013d5c    00000054     maclib_secure.a : fh_sm.obj (.text:FHSM_event)
                  00013db0    00000054     uart_printf.obj (.text:UartPrintf_flush)
                  00013e04    00000054     maclib_secure.a : mac_device.obj (.text:macApiPollReq)
                  00013e58    00000054                     : mac_beacon_device.obj (.text:macSyncTimeoutCallback)
                  00013eac    00000054                     : mac_beacon_device.obj (.text:macTrackStartCallback)
                  00013f00    00000054                     : mac_ie_parse.obj (.text:macUpdatePayloadIEPtr)
                  00013f54    00000054     api_mac.obj (.text:processScanCnf$32)
                  00013fa8    00000052     maclib_secure.a : fh_ie.obj (.text:FHIE_genExcludedChannelMask)
                  00013ffa    00000052                     : fh_ie.obj (.text:FHIE_getSubPie)
                  0001404c    00000050                     : fh_mgr.obj (.text:FHMGR_macStartFHTimer)
                  0001409c    00000050                     : fh_mgr.obj (.text:FHMGR_ucTimerIsrCb)
                  000140ec    00000050                     : fh_nt.obj (.text:FHNT_getEUI)
                  0001413c    00000050     driverlib.lib : crypto.obj (.text:NOROM_CRYPTOCcmAuthEncryptResultGet)
                  0001418c    00000050     rf_multiMode_cc13x0.aem3 : RFCC26XX_multiMode.oem3 (.text:RF_applyRfCorePatch)
                  000141dc    00000050                              : RFCC26XX_multiMode.oem3 (.text:RF_fsmXOSCState)
                  0001422c    00000050                              : RFCC26XX_multiMode.oem3 (.text:RF_wakeupNotification)
                  0001427c    00000050     maclib_secure.a : mac_device.obj (.text:macAssocDataReqComplete)
                  000142cc    00000050                     : mac_radio.obj (.text:macRadioSetChannel)
                  0001431c    00000050                     : mac_symbol_timer.obj (.text:macSymbolTimerSetRollover)
                  0001436c    00000050     drivers_cc13x0.aem3 : UARTCC26XX.oem3 (.text:startTxFifoEmptyClk)
                  000143bc    0000004e     maclib_secure.a : fh_dh1cf.obj (.text:FHDH1CF_mapChIdxChannel)
                  0001440a    00000002     rom_sysbios.aem3 : rom_sysbios.obj (.text:ti_sysbios_knl_Clock_triggerFunc__I)
                  0001440c    0000004c     maclib_secure.a : fh_pib.obj (.text:FHPIB_get)
                  00014458    0000004c     rtsv7M3_T_le_eabi.lib : cpy_tbl.c.obj (.text:copy_in)
                  000144a4    0000004c     maclib_secure.a : mac.obj (.text:macFsCb$75)
                  000144f0    0000004c                     : mac_radio.obj (.text:macGetRadioTxPowerReg)
                  0001453c    0000004c                     : mac_radio.obj (.text:macRadioWakeupCb)
                  00014588    0000004c                     : mac_rx.obj (.text:macRxNokIsr)
                  000145d4    0000004c                     : mac_symbol_timer.obj (.text:macSymbolTimerEventHandler$83)
                  00014620    0000004c                     : mac_tx.obj (.text:macTxAckNotReceivedCallback)
                  0001466c    0000004a     macstack.obj (.text:icall_slimMsgParser)
                  000146b6    00000002     app_pem3.oem3 (.text:ti_sysbios_rom_cortexm_cc13xx_CC13xx_badRomRevision__E)
                  000146b8    00000048     board_lcd.obj (.text:Board_Lcd_writeStringValue)
                  00014700    00000048     dpl_cc13x0.aem3 : ClockP_tirtos.oem3 (.text:ClockP_construct)
                  00014748    00000048     jdllc.obj (.text:Jdllc_sendDisassociationRequest)
                  00014790    00000048     drivers_cc13x0.aem3 : PINCC26XX.oem3 (.text:PIN_setOutputEnable)
                  000147d8    00000048     ssf.obj (.text:Ssf_configurationUpdate)
                  00014820    00000048     timer.obj (.text:Timer_construct)
                  00014868    00000048     util.obj (.text:Util_itoa)
                  000148b0    00000048     maclib_secure.a : mac_beacon_device.obj (.text:macBeaconStartFrameResponseTimer)
                  000148f8    00000048                     : mac.obj (.text:macSetupFsCmd)
                  00014940    00000048     drivers_cc13x0.aem3 : UARTCC26XX.oem3 (.text:writeFinishedDoCallback)
                  00014988    00000046     maclib_secure.a : fh_dh1cf.obj (.text:FHDH1CF_getCh)
                  000149ce    00000046                     : fh_ie.obj (.text:FHIE_getCommonInformationLen)
                  00014a14    00000044                     : fh_api.obj (.text:FHAPI_getRemDT)
                  00014a58    00000044                     : mac_pib.obj (.text:MAC_MlmeGetReq)
                  00014a9c    00000044     drivers_cc13x0.aem3 : RingBuf.oem3 (.text:RingBuf_put)
                  00014ae0    00000044     boot.aem3 : boot.oem3 (.text)
                  00014b24    00000044     nvocop.obj (.text:erasePage$29)
                  00014b68    00000044     ssf.obj (.text:getNumBlackListEntries$38)
                  00014bac    00000044     maclib_secure.a : mac_device.obj (.text:macAssocDataReq)
                  00014bf0    00000044                     : mac_device.obj (.text:macPollDataReqComplete)
                  00014c34    00000044                     : mac.obj (.text:macSetupReceiveCmd)
                  00014c78    00000044                     : mac.obj (.text:macStopCmd)
                  00014cbc    00000044                     : mac_main.obj (.text:mac_msg_deallocate)
                  00014d00    00000044     jdllc.obj (.text:populateInfo$34)
                  00014d44    00000044     rom_sysbios.aem3 : rom_sysbios.obj (.text:xdc_runtime_Text_xprintf__I)
                  00014d88    00000042     api_mac.obj (.text:copyMacPanDescToApiMacPanDesc$32)
                  00014dca    00000002     rom_sysbios.aem3 : rom_sysbios.obj (.text:xdc_runtime_SysCallback_defaultAbort)
                  00014dcc    00000040     maclib_secure.a : fh_dh1cf.obj (.text:FHDH1CF_hashword)
                  00014e0c    00000040                     : fh_nt.obj (.text:FHNT_delTempIndex)
                  00014e4c    00000040                     : fh_util.obj (.text:FHUTIL_getCurUfsi)
                  00014e8c    00000040     hal_trng_wrapper.obj (.text:HalTRNG_GetTRNG)
                  00014ecc    00000040     osal.obj (.text:ICall_setTimer$19)
                  00014f0c    00000040     maclib_secure.a : mac_symbol_timer.obj (.text:ICall_setTimer$83)
                  00014f4c    00000040                     : mac_tx.obj (.text:ICall_setTimer$84)
                  00014f8c    00000040     driverlib.lib : chipinfo.obj (.text:NOROM_ChipInfo_GetHwRevision)
                  00014fcc    00000040     nvocop.obj (.text:NVOCOP_initNV)
                  0001500c    00000040     drivers_cc13x0.aem3 : PINCC26XX.oem3 (.text:PIN_swi)
                  0001504c    00000040     rf_multiMode_cc13x0.aem3 : RFCC26XX_multiMode.oem3 (.text:RF_setTxPower)
                  0001508c    00000040     drivers_cc13x0.aem3 : UART.oem3 (.text:UART_init)
                  000150cc    00000040                         : UART.oem3 (.text:UART_open)
                  0001510c    00000040     jdllc.obj (.text:handleMaxDataFail$34)
                  0001514c    00000040     maclib_secure.a : mac_device.obj (.text:macPollFrameResponseTimeout)
                  0001518c    00000040     rtsv7M3_T_le_eabi.lib : u_divt2.asm.obj (.text)
                  000151cc    00000040     jdllc.obj (.text:sendPollReq$34)
                  0001520c    00000040     rom_sysbios.aem3 : rom_sysbios.obj (.text:ti_sysbios_family_arm_cc26xx_Timer_setThreshold__I)
                  0001524c    0000003e     dpl_cc13x0.aem3 : HwiP_tirtos.oem3 (.text:HwiP_construct)
                  0001528a    0000003e     drivers_cc13x0.aem3 : RingBuf.oem3 (.text:RingBuf_get)
                  000152c8    0000003c     maclib_secure.a : fh_mgr.obj (.text:FHMGR_updateHopping)
                  00015304    0000003c     icall_cc2650.obj (.text:ICallPlatform_pwrConfigACAction)
                  00015340    0000003c     api_mac.obj (.text:ICall_sendServiceMsg$32)
                  0001537c    0000003c     osal.obj (.text:ICall_setTimerMSecs$19)
                  000153b8    0000003c     driverlib.lib : osc.obj (.text:NOROM_OSC_HPOSCRelativeFrequencyOffsetGet)
                  000153f4    0000003c                   : rfc.obj (.text:NOROM_RFCSynthPowerDown)
                  00015430    0000003c     nvocop.obj (.text:NVOCOP_compactNV)
                  0001546c    0000003c     drivers_cc13x0.aem3 : PowerCC26XX.oem3 (.text:PowerCC26XX_isStableXOSC_HF)
                  000154a8    0000003c     rf_multiMode_cc13x0.aem3 : RFCC26XX_multiMode.oem3 (.text:RF_cmdGet)
                  000154e4    0000003c     dpl_cc13x0.aem3 : SwiP_tirtos.oem3 (.text:SwiP_construct)
                  00015520    0000003c     drivers_cc13x0.aem3 : PowerCC26XX.oem3 (.text:disableLfClkQualifiersEnableClkLoss)
                  0001555c    0000003c     maclib_secure.a : mac_hl_patch.obj (.text:macCheckPhyRate)
                  00015598    0000003c                     : mac_rx_onoff.obj (.text:macRxDisable)
                  000155d4    0000003c                     : mac_device.obj (.text:macStartFrameResponseTimer)
                  00015610    0000003c                     : mac_symbol_timer.obj (.text:macSymbolTimerSetTrigger)
                  0001564c    0000003c     osal.obj (.text:osal_msg_extract)
                  00015688    0000003c     rom_sysbios.aem3 : rom_sysbios.obj (.text:ti_sysbios_family_arm_m3_Hwi_construct2__E)
                  000156c4    0000003a     maclib_secure.a : fh_dh1cf.obj (.text:FHDH1CF_getChannelNum)
                  000156fe    0000003a     util.obj (.text:Util_bufferUint32)
                  00015738    00000038     maclib_secure.a : fh_api.obj (.text:FHAPI_stopAsync)
                  00015770    00000038     hal_trng_wrapper.obj (.text:HalTRNG_InitTRNG)
                  000157a8    00000038     macstack.obj (.text:ICall_enrollService$26)
                  000157e0    00000038     main.obj (.text:Main_assertHandler)
                  00015818    00000038     nvocop.obj (.text:NVOCOP_readItem)
                  00015850    00000038     drivers_cc13x0.aem3 : PINCC26XX.oem3 (.text:PIN_setOutputValue)
                  00015888    00000038     rf_multiMode_cc13x0.aem3 : RFCC26XX_multiMode.oem3 (.text:RF_checkCmdFsError)
                  000158c0    00000038     board_key.obj (.text:board_key_keyFxn$5)
                  000158f8    00000038     jdllc.obj (.text:disassoCnfCb$34)
                  00015930    00000038     maclib_secure.a : mac_device.obj (.text:macAssocFailed)
                  00015968    00000038                     : mac_beacon.obj (.text:macBeaconRequeue)
                  000159a0    00000038                     : mac.obj (.text:macSetUserConfig)
                  000159d8    00000038                     : mac_symbol_timer.obj (.text:macSymbolTimerCount)
                  00015a10    00000038                     : mac_symbol_timer.obj (.text:macSymbolTimerRealignSubG)
                  00015a48    00000038     osal.obj (.text:osal_msg_dequeue)
                  00015a80    00000038     drivers_cc13x0.aem3 : UARTCC26XX.oem3 (.text:readData)
                  00015ab8    00000038     rom_sysbios.aem3 : rom_sysbios.obj (.text:ti_sysbios_family_arm_cc26xx_Timer_getCurrentTick__E)
                  00015af0    00000038     drivers_cc13x0.aem3 : UARTCC26XX.oem3 (.text:writeData)
                  00015b28    00000036     maclib_secure.a : fh_ie.obj (.text:FHIE_getPie)
                  00015b5e    00000002     rom_sysbios.aem3 : rom_sysbios.obj (.text:xdc_runtime_SysCallback_defaultExit)
                  00015b60    00000034     osal.obj (.text:ICall_send$19)
                  00015b94    00000034     maclib_secure.a : fh_mgr.obj (.text:ICall_setTimer$56)
                  00015bc8    00000034     driverlib.lib : ddi.obj (.text:NOROM_DDI32RegWrite)
                  00015bfc    00000034                   : osc.obj (.text:NOROM_OSCHF_SwitchToRcOscTurnOffXosc)
                  00015c30    00000034     drivers_cc13x0.aem3 : PINCC26XX.oem3 (.text:PIN_setConfig)
                  00015c64    00000034                         : PowerCC26XX.oem3 (.text:Power_releaseConstraint)
                  00015c98    00000034     rf_multiMode_cc13x0.aem3 : RFCC26XX_multiMode.oem3 (.text:RF_powerConstraintRelease)
                  00015ccc    00000034                              : RFCC26XX_multiMode.oem3 (.text:RF_queueEnd)
                  00015d00    00000034                              : RFCC26XX_multiMode.oem3 (.text:RF_runDirectImmediateCmd)
                  00015d34    00000034     nvocop.obj (.text:disableCache$29)
                  00015d68    00000034     maclib_secure.a : mac_device.obj (.text:macAssociateCnf)
                  00015d9c    00000034                     : mac_beacon_device.obj (.text:macBeaconStopTrack)
                  00015dd0    00000034                     : mac_data.obj (.text:macDataRxInd)
                  00015e04    00000034                     : mac_beacon_device.obj (.text:macStartBroadcastPendTimer)
                  00015e38    00000034                     : mac_timer.obj (.text:macTimerRecalcUnaligned)
                  00015e6c    00000034                     : mac_tx.obj (.text:macTxDecrypt)
                  00015ea0    00000034                     : mac_tx.obj (.text:macTxUpdateIE)
                  00015ed4    00000034     drivers_cc13x0.aem3 : PowerCC26XX.oem3 (.text:notify)
                  00015f08    00000034     osal.obj (.text:osal_msg_enqueue)
                  00015f3c    00000034     rom_sysbios.aem3 : rom_sysbios.obj (.text:ti_sysbios_family_arm_cc26xx_Timer_initDevice__I)
                  00015f70    00000034                      : rom_sysbios.obj (.text:ti_sysbios_knl_Swi_setPri__E)
                  00015fa4    00000032     maclib_secure.a : fh_ie.obj (.text:FHIE_getHie)
                  00015fd6    00000032     icall_cc2650.obj (.text:ICallPlatform_pwrNotify$1)
                  00016008    00000032     maclib_secure.a : mac_scan.obj (.text:macScanCnfInit)
                  0001603a    00000032     rom_sysbios.aem3 : rom_sysbios.obj (.text:ti_sysbios_family_arm_cc26xx_Timer_setNextTick__E)
                  0001606c    00000030     maclib_secure.a : fh_api.obj (.text:FHAPI_SFDRxCb)
                  0001609c    00000030                     : fh_sm.obj (.text:FSM_transaction_debug)
                  000160cc    00000030     hal_flash_wrapper.obj (.text:HalFlashRead)
                  000160fc    00000030     icall_cc2650.obj (.text:ICallPlatform_pwrRegisterNotify)
                  0001612c    00000030     driverlib.lib : crypto.obj (.text:NOROM_CRYPTOAesEcbStatus)
                  0001615c    00000030                   : crypto.obj (.text:NOROM_CRYPTOCcmAuthEncryptStatus)
                  0001618c    00000030                   : crypto.obj (.text:NOROM_CRYPTOCcmInvAuthDecryptStatus)
                  000161bc    00000030                   : chipinfo.obj (.text:NOROM_ChipInfo_GetChipType)
                  000161ec    00000030                   : setup_rom.obj (.text:NOROM_SetupSetAonRtcSubSecInc)
                  0001621c    00000030     drivers_cc13x0.aem3 : PowerCC26XX.oem3 (.text:Power_setConstraint)
                  0001624c    00000030     ssf.obj (.text:Ssf_setPollClock)
                  0001627c    00000030     ssf.obj (.text:Ssf_setReadingClock)
                  000162ac    00000030     ssf.obj (.text:Ssf_setScanBackoffClock)
                  000162dc    00000030     jdllc.obj (.text:disassocIndCb$34)
                  0001630c    00000030     maclib_secure.a : mac_mgmt.obj (.text:macBcTimerHandler)
                  0001633c    00000030                     : mac_pib.obj (.text:macMRFSKGetPhyDesc)
                  0001636c    00000030                     : mac_symbol_timer.obj (.text:macSymbolTimerICallTimerCback$83)
                  0001639c    00000030                     : mac_timer.obj (.text:macTimerSetRollover)
                  000163cc    00000030     osal.obj (.text:osal_alien2proxy)
                  000163fc    00000030     drivers_cc13x0.aem3 : UARTCC26XX.oem3 (.text:readData2RingBuf)
                  0001642c    00000030     app_pem3.oem3 (.text:ti_sysbios_BIOS_atExitFunc__I)
                  0001645c    00000030     app_pem3.oem3 (.text:ti_sysbios_BIOS_startFunc__I)
                  0001648c    0000002e     icall_cc2650.obj (.text:ICallPlatform_pwrDispenseImpl$1)
                  000164ba    0000002e     icall_cc2650.obj (.text:ICallPlatform_pwrRequireImpl$1)
                  000164e8    0000002e     drivers_cc13x0.aem3 : CryptoCC26XX.oem3 (.text:cryptoTransactionPend)
                  00016516    00000002     --HOLE-- [fill = 0]
                  00016518    0000002c     CC13X0_LAUNCHXL.obj (.text:CC1350_LAUNCHXL_rfDriverCallback$3)
                  00016544    0000002c     maclib_secure.a : fh_ie.obj (.text:FHIE_getExcludedChannelControl)
                  00016570    0000002c     driverlib.lib : osc.obj (.text:NOROM_OSCClockSourceGet)
                  0001659c    0000002c                   : rfc.obj (.text:NOROM_RFCCpePatchReset)
                  000165c8    0000002c     drivers_cc13x0.aem3 : PINCC26XX.oem3 (.text:PINCC26XX_setMux)
                  000165f4    0000002c     rf_multiMode_cc13x0.aem3 : RFCC26XX_multiMode.oem3 (.text:RF_calculateDeltaTimeUs)
                  00016620    0000002c                              : RFCC26XX_multiMode.oem3 (.text:RF_executeDirectImmediateCmd)
                  0001664c    0000002c     dpl_cc13x0.aem3 : SemaphoreP_tirtos.oem3 (.text:SemaphoreP_constructBinary)
                  00016678    0000002c     ssf.obj (.text:Ssf_clearNetworkInfo)
                  000166a4    0000002c     uart_printf.obj (.text:UartPrintf_putch)
                  000166d0    0000002c     nvocop.obj (.text:findOffset$29)
                  000166fc    0000002c     maclib_secure.a : mac_pib.obj (.text:macPibReset)
                  00016728    0000002c                     : mac_radio.obj (.text:macRadioSetPanCoordinator)
                  00016754    0000002c     osal.obj (.text:osal_msec_timer_cback$19)
                  00016780    0000002c     saddr.obj (.text:sAddrCmp)
                  000167ac    0000002c     rom_sysbios.aem3 : rom_sysbios.obj (.text:ti_sysbios_knl_Clock_getTicksUntilInterrupt__E)
                  000167d8    0000002b                      : rom_sysbios.obj (.text:xdc_runtime_Text_printVisFxn__I)
                  00016803    00000001     --HOLE-- [fill = 0]
                  00016804    0000002a                      : rom_sysbios.obj (.text:ti_sysbios_knl_Clock_getTimeout__E)
                  0001682e    0000002a                      : rom_sysbios.obj (.text:xdc_runtime_System_putchar__I)
                  00016858    00000028     drivers_cc13x0.aem3 : CryptoCC26XX.oem3 (.text:CryptoCC26XX_releaseKey)
                  00016880    00000028     maclib_secure.a : fh_mgr.obj (.text:FHMGR_macCancelFHTimer)
                  000168a8    00000028     ssf.obj (.text:ICall_malloc$38)
                  000168d0    00000028     maclib_secure.a : mac_security_pib.obj (.text:MAC_MlmeGetPointerSecurityReq)
                  000168f8    00000028     driverlib.lib : aon_batmon.obj (.text:NOROM_AONBatMonTemperatureGetDegC)
                  00016920    00000028                   : rfc.obj (.text:NOROM_RFCDoorbellSendTo)
                  00016948    00000028     drivers_cc13x0.aem3 : PowerCC26XX.oem3 (.text:Power_registerNotify)
                  00016970    00000028     rf_multiMode_cc13x0.aem3 : RFCC26XX_multiMode.oem3 (.text:RF_getTxPower)
                  00016998    00000028     driverlib.lib : adi.obj (.text:SafeHapiVoid)
                  000169c0    00000028     board_led.obj (.text:board_led_anyBlinking$7)
                  000169e8    00000028     nvocop.obj (.text:findItem$29)
                  00016a10    00000028     maclib_secure.a : mac_mgmt.obj (.text:macApiPending)
                  00016a38    00000028                     : mac_beacon.obj (.text:macBeaconCheckSched)
                  00016a60    00000028                     : mac_mgmt.obj (.text:macCoordAddrCmp)
                  00016a88    00000028                     : mac_mgmt.obj (.text:macGetCoordAddress)
                  00016ab0    00000028                     : mac_radio.obj (.text:macRadioStopScan)
                  00016ad8    00000028                     : mac_tx.obj (.text:macTxRequestCsmaRtcDelay)
                  00016b00    00000028     osal_memory_icall.obj (.text:osal_mem_alloc)
                  00016b28    00000028     osal_timers.obj (.text:osal_next_timeout)
                  00016b50    00000026     maclib_secure.a : fh_util.obj (.text:FHUTIL_getMaxChannels)
                  00016b76    00000026                     : fh_util.obj (.text:FHUTIL_getTxUfsi)
                  00016b9c    00000026                     : mac_radio.obj (.text:radioComputeED$78)
                  00016bc2    00000026     rom_sysbios.aem3 : rom_sysbios.obj (.text:xdc_runtime_System_vprintf__E)
                  00016be8    00000024     drivers_cc13x0.aem3 : CryptoCC26XX.oem3 (.text:CryptoCC26XX_hwiIntFxn)
                  00016c0c    00000024     maclib_secure.a : fh_api.obj (.text:FHAPI_getTxChHoppingFunc)
                  00016c30    00000024                     : fh_pib.obj (.text:FHPIB_getLen)
                  00016c54    00000024     osal_pwrmgr.obj (.text:ICall_pwrUpdActivityCounter$23)
                  00016c78    00000024     drivers_cc13x0.aem3 : List.oem3 (.text:List_remove)
                  00016c9c    00000024     rf_multiMode_cc13x0.aem3 : RFCC26XX_multiMode.oem3 (.text:RF_cmdAlloc)
                  00016cc0    00000024                              : RFCC26XX_multiMode.oem3 (.text:RF_invokeGlobalCallback)
                  00016ce4    00000024     maclib_secure.a : mac_device.obj (.text:macAssocFrameResponseTimeout)
                  00016d08    00000024                     : mac_beacon.obj (.text:macBeaconReset)
                  00016d2c    00000024                     : mac_radio.obj (.text:macGetRadioState)
                  00016d50    00000024                     : mac_radio_tx.obj (.text:macRadioTxRequestTxAck)
                  00016d74    00000024                     : mac_rx_onoff.obj (.text:macRxSoftDisable)
                  00016d98    00000024                     : mac_timer.obj (.text:macTimerAligned)
                  00016dbc    00000024     rtsv7M3_T_le_eabi.lib : memcmp.c.obj (.text:memcmp)
                  00016de0    00000024     osal.obj (.text:osal_msg_allocate)
                  00016e04    00000024     app_pem3.oem3 (.text:ti_sysbios_BIOS_registerRTSLock__I)
                  00016e28    00000024     app_pem3.oem3 (.text:ti_sysbios_BIOS_removeRTSLock__I)
                  00016e4c    00000024     rom_sysbios.aem3 : rom_sysbios.obj (.text:ti_sysbios_family_arm_cc26xx_Timer_getMaxTicks__E)
                  00016e70    00000022     drivers_cc13x0.aem3 : List.oem3 (.text:List_get)
                  00016e92    00000022                         : List.oem3 (.text:List_insert)
                  00016eb4    00000022                         : List.oem3 (.text:List_put)
                  00016ed6    00000022                         : List.oem3 (.text:List_putHead)
                  00016ef8    00000020     maclib_secure.a : fh_data.obj (.text:FHDATA_updateCCA)
                  00016f18    00000020                     : fh_util.obj (.text:FHUTIL_updateUcNumChannels)
                  00016f38    00000020     hal_flash_wrapper.obj (.text:HalFlashGetAddress)
                  00016f58    00000020     osal_memory_icall.obj (.text:ICall_free$22)
                  00016f78    00000020     api_mac.obj (.text:ICall_free$32)
                  00016f98    00000020     osal.obj (.text:ICall_getTicks$19)
                  00016fb8    00000020     sensor.obj (.text:ICall_getTicks$37)
                  00016fd8    00000020     maclib_secure.a : fh_data.obj (.text:ICall_getTicks$55)
                  00016ff8    00000020                     : fh_mgr.obj (.text:ICall_getTicks$56)
                  00017018    00000020                     : fh_util.obj (.text:ICall_getTicks$59)
                  00017038    00000020                     : fh_api.obj (.text:ICall_getTicks$85)
                  00017058    00000020                     : fh_nt.obj (.text:ICall_getTicks$88)
                  00017078    00000020     osal.obj (.text:ICall_signal$19)
                  00017098    00000020     maclib_secure.a : mac_symbol_timer.obj (.text:ICall_signal$83)
                  000170b8    00000020                     : mac_pib.obj (.text:MAC_GetPHYParamReq)
                  000170d8    00000020     driverlib.lib : rfc.obj (.text:NOROM_RFCAdi3VcoLdoVoltageMode)
                  000170f8    00000020     dpl_cc13x0.aem3 : PowerCC26XX_tirtos.oem3 (.text:PowerCC26XX_schedulerDisable)
                  00017118    00000020                     : PowerCC26XX_tirtos.oem3 (.text:PowerCC26XX_schedulerRestore)
                  00017138    00000020     drivers_cc13x0.aem3 : PowerCC26XX.oem3 (.text:Power_unregisterNotify)
                  00017158    00000020     rf_multiMode_cc13x0.aem3 : RFCC26XX_multiMode.oem3 (.text:RF_clkPowerUp)
                  00017178    00000020                              : RFCC26XX_multiMode.oem3 (.text:RF_hwiCpe0ChangePhy)
                  00017198    00000020                              : RFCC26XX_multiMode.oem3 (.text:RF_ratIsRunning)
                  000171b8    00000020     maclib_secure.a : mac_data.obj (.text:macDataRxMemAlloc)
                  000171d8    00000020                     : mac_data.obj (.text:macDataSend)
                  000171f8    00000020                     : mac_radio.obj (.text:macRadioSwInit)
                  00017218    00000020                     : mac_rx_onoff.obj (.text:macRxOff)
                  00017238    00000020                     : mac_rx_onoff.obj (.text:macRxSoftEnable)
                  00017258    00000020     osal.obj (.text:osal_memcmp)
                  00017278    00000020     osal.obj (.text:osal_msg_push)
                  00017298    00000020     ssf.obj (.text:processScanBackoffTimeoutCallback$38)
                  000172b8    00000020     app_pem3.oem3 (.text:ti_sysbios_BIOS_rtsLock__I)
                  000172d8    00000020     rom_sysbios.aem3 : rom_sysbios.obj (.text:ti_sysbios_family_arm_cc26xx_Timer_dynamicStub__E)
                  000172f8    00000020                      : rom_sysbios.obj (.text:ti_sysbios_knl_Clock_stop__E)
                  00017318    00000020                      : rom_sysbios.obj (.text:xdc_runtime_Registry_findById__E)
                  00017338    0000001e     drivers_cc13x0.aem3 : PINCC26XX.oem3 (.text:PIN_close)
                  00017356    0000001e                         : PowerCC26XX.oem3 (.text:Power_getTransitionLatency)
                  00017374    0000001e     maclib_secure.a : mac_hl_patch.obj (.text:macPibIndex)
                  00017392    0000001e                     : mac_scan.obj (.text:macScanFailedInProgress)
                  000173b0    0000001e                     : mac_timer.obj (.text:macTimerRemoveTimer)
                  000173ce    0000001c                     : fh_api.obj (.text:FHAPI_setStateCb)
                  000173ea    0000001c                     : fh_pib.obj (.text:FHPIB_getIndex)
                  00017406    00000002     --HOLE-- [fill = 0]
                  00017408    0000001c     osal.obj (.text:ICall_abort$19)
                  00017424    0000001c     osaltasks.obj (.text:ICall_abort$27)
                  00017440    0000001c     driverlib.lib : chipinfo.obj (.text:NOROM_ChipInfo_GetChipFamily)
                  0001745c    0000001c                   : flash.obj (.text:NOROM_FlashProgram)
                  00017478    0000001c                   : flash.obj (.text:NOROM_FlashSectorErase)
                  00017494    0000001c     drivers_cc13x0.aem3 : PINCC26XX.oem3 (.text:PINCC26XX_setIoCfgMux)
                  000174b0    0000001c                         : PINCC26XX.oem3 (.text:PIN_hwi)
                  000174cc    0000001c     rf_multiMode_cc13x0.aem3 : RFCC26XX_multiMode.oem3 (.text:RF_clkInactivity)
                  000174e8    0000001c                              : RFCC26XX_multiMode.oem3 (.text:RF_getRssi)
                  00017504    0000001c                              : RFCC26XX_multiMode.oem3 (.text:RF_powerConstraintSet)
                  00017520    0000001c     ssf.obj (.text:Ssf_initializeReadingClock)
                  0001753c    0000001c     ssf.obj (.text:Ssf_stateChangeUpdate)
                  00017558    0000001c     nvocop.obj (.text:enableCache$29)
                  00017574    0000001c     maclib_secure.a : mac_mgmt.obj (.text:macConflictSyncLossInd)
                  00017590    0000001c                     : mac_mcu.obj (.text:macMcuTimerCapture)
                  000175ac    0000001c                     : mac_device.obj (.text:macPollRxDisassoc)
                  000175c8    0000001c                     : mac_radio.obj (.text:macRadioSetRE)
                  000175e4    0000001c                     : mac_rx.obj (.text:macRxAckTxDoneCallback)
                  00017600    0000001c                     : mac.obj (.text:macSetCurrChan$75)
                  0001761c    0000001c                     : mac_symbol_timer.obj (.text:macSymbolTimerSetTriggerRollover)
                  00017638    0000001c                     : mac_timer.obj (.text:macTimer)
                  00017654    0000001c     osal.obj (.text:osal_proxy2alien$19)
                  00017670    0000001c     ssf.obj (.text:processPollTimeoutCallback$38)
                  0001768c    0000001c     ssf.obj (.text:processReadingTimeoutCallback$38)
                  000176a8    0000001c     maclib_secure.a : mac_rx.obj (.text:rxDone$80)
                  000176c4    0000001c     saddr.obj (.text:sAddrExtCmp)
                  000176e0    0000001c     rom_sysbios.aem3 : rom_sysbios.obj (.text:ti_sysbios_knl_Swi_construct2__E)
                  000176fc    0000001a     api_mac.obj (.text:copyApiMacAddrToMacAddr)
                  00017716    0000001a     maclib_secure.a : mac_hl_patch.obj (.text:macCheckPhyMode)
                  00017730    0000001a                     : mac_low_level.obj (.text:macLowLevelDiags)
                  0001774a    0000001a     rom_sysbios.aem3 : rom_sysbios_config.obj (.text:xdc_runtime_System_printf__E)
                  00017764    00000018     api_mac.obj (.text:ApiMac_mlmeSetReqBool)
                  0001777c    00000018     api_mac.obj (.text:ApiMac_mlmeSetReqUint16)
                  00017794    00000018     api_mac.obj (.text:ApiMac_mlmeSetReqUint8)
                  000177ac    00000018     maclib_secure.a : fh_api.obj (.text:FHAPI_getBitCount)
                  000177c4    00000018     hal_aes.obj (.text:HalAesInit)
                  000177dc    00000018     icall_cc2650.obj (.text:ICallPlatform_pwrDispense)
                  000177f4    00000018     icall_cc2650.obj (.text:ICallPlatform_pwrRequire)
                  0001780c    00000018     driverlib.lib : aon_rtc.obj (.text:NOROM_AONRTCCurrentCompareValueGet)
                  00017824    00000018                   : chipinfo.obj (.text:NOROM_ChipInfo_GetPackageType)
                  0001783c    00000018                   : osc.obj (.text:NOROM_OSCHF_TurnOnXosc)
                  00017854    00000018                   : rfc.obj (.text:NOROM_RFCCpeIntGetAndClear)
                  0001786c    00000018     drivers_cc13x0.aem3 : PowerCC26XX.oem3 (.text:Power_idleFunc)
                  00017884    00000018     rf_multiMode_cc13x0.aem3 : RFCC26XX_multiMode.oem3 (.text:RF_preemptClient)
                  0001789c    00000018                              : RFCC26XX_multiMode.oem3 (.text:RF_swiFsm)
                  000178b4    00000018                              : RFCC26XX_multiMode.oem3 (.text:RF_triggDispatcher)
                  000178cc    00000018     drivers_cc13x0.aem3 : UARTCC26XX.oem3 (.text:UARTCC26XX_init)
                  000178e4    00000018                         : UART.oem3 (.text:UART_Params_init)
                  000178fc    00000018     rtsv7M3_T_le_eabi.lib : args_main.c.obj (.text:_args_main)
                  00017914    00000018     board_key.obj (.text:board_key_changeHandler$5)
                  0001792c    00000018     api_mac.obj (.text:copyMacAddrToApiMacAddr$32)
                  00017944    00000018     drivers_cc13x0.aem3 : CryptoCC26XX.oem3 (.text:cryptoTransactionPoll)
                  0001795c    00000018     maclib_secure.a : mac_data.obj (.text:macDataTxTimeAvailable)
                  00017974    00000018                     : mac_mgmt.obj (.text:macGetMyAddrMode)
                  0001798c    00000018                     : mac_device.obj (.text:macPollCnf)
                  000179a4    00000018                     : mac_device.obj (.text:macPollRxAssocRsp)
                  000179bc    00000018                     : mac_radio.obj (.text:macRadioSetIEEEAddr)
                  000179d4    00000018                     : mac_radio.obj (.text:macRadioSetShortAddr)
                  000179ec    00000018                     : mac_rx_onoff.obj (.text:macRxOnRequest)
                  00017a04    00000018                     : mac_device.obj (.text:macStartResponseTimer)
                  00017a1c    00000018                     : mac_main.obj (.text:macStateIdleOrPolling)
                  00017a34    00000018                     : mac_symbol_timer.obj (.text:macSymbolTimerRestore)
                  00017a4c    00000018                     : mac_timer.obj (.text:macTimerInit)
                  00017a64    00000018                     : mac_tx.obj (.text:macTxAbortIsr)
                  00017a7c    00000018                     : macwrapper.obj (.text:macWrapper8ByteUnused)
                  00017a94    00000018     osal.obj (.text:osal_memcpy)
                  00017aac    00000018     ssf.obj (.text:processKeyChangeCallback$38)
                  00017ac4    00000018     rtsv7M3_T_le_eabi.lib : ll_mul_t2.asm.obj (.text)
                  00017adc    00000018     app_pem3.oem3 (.text:ti_sysbios_BIOS_rtsUnlock__I)
                  00017af4    00000018     rom_sysbios.aem3 : rom_sysbios.obj (.text:ti_sysbios_knl_Swi_or__E)
                  00017b0c    00000018     app_pem3.oem3 (.text:ti_sysbios_rom_cortexm_cc13xx_CC13xx_checkRevision__E)
                  00017b24    00000016     rf_multiMode_cc13x0.aem3 : RFCC26XX_multiMode.oem3 (.text:RF_restartClockTimeout)
                  00017b3a    00000016     util.obj (.text:Util_clearEvent)
                  00017b50    00000016     util.obj (.text:Util_parseUint32)
                  00017b66    00000016     util.obj (.text:Util_setEvent)
                  00017b7c    00000016     app_pem3.oem3 (.text:ti_sysbios_BIOS_exitFunc__I)
                  00017b92    00000002     --HOLE-- [fill = 0]
                  00017b94    00000014     api_mac.obj (.text:ApiMac_randomByte)
                  00017ba8    00000014     maclib_secure.a : fh_pib.obj (.text:FHPIB_reset)
                  00017bbc    00000014     jdllc.obj (.text:Jdllc_setPollRate)
                  00017bd0    00000014     drivers_cc13x0.aem3 : List.oem3 (.text:List_clearList)
                  00017be4    00000014     macstack.obj (.text:MAC_CbackQueryRetransmit)
                  00017bf8    00000014     driverlib.lib : aon_rtc.obj (.text:NOROM_AONRTCCurrent64BitValueGet)
                  00017c0c    00000014     drivers_cc13x0.aem3 : PINCC26XX.oem3 (.text:PINCC26XX_getInputValue)
                  00017c20    00000014     rf_multiMode_cc13x0.aem3 : RFCC26XX_multiMode.oem3 (.text:RF_Params_init)
                  00017c34    00000014                              : RFCC26XX_multiMode.oem3 (.text:RF_RatConfigCompare_init)
                  00017c48    00000014                              : RFCC26XX_multiMode.oem3 (.text:RF_dbellSyncOnAck)
                  00017c5c    00000014                              : RFCC26XX_multiMode.oem3 (.text:RF_ratCompare)
                  00017c70    00000014                              : RFCC26XX_multiMode.oem3 (.text:RF_ratGetChannel)
                  00017c84    00000014                              : RFCC26XX_multiMode.oem3 (.text:RF_schResolveConflict)
                  00017c98    00000014     main.obj (.text:SysCtrlSystemReset$36)
                  00017cac    00000014     drivers_cc13x0.aem3 : PowerCC26XX.oem3 (.text:configureRFCoreClocks)
                  00017cc0    00000014     maclib_secure.a : mac_main.obj (.text:macMainReserve)
                  00017cd4    00000014                     : mac_mcu.obj (.text:macMcuOverflowCapture)
                  00017ce8    00000014                     : mac_radio.obj (.text:macRadioSetPanID)
                  00017cfc    00000014                     : mac_main.obj (.text:macStateScanning)
                  00017d10    00000014                     : mac_mgmt.obj (.text:macWSAsyncCnf)
                  00017d24    00000014                     : mac_rx.obj (.text:rxDiscardFrame$80)
                  00017d38    00000014     saddr.obj (.text:sAddrCpy)
                  00017d4c    00000014     nvocop.obj (.text:setActivePage$29)
                  00017d60    00000014     rtsv7M3_T_le_eabi.lib : strlen.c.obj (.text:strlen)
                  00017d74    00000014     jdllc.obj (.text:switchState$34)
                  00017d88    00000014     app_pem3.oem3 (.text:ti_sysbios_knl_Clock_doTick__I)
                  00017d9c    00000013     board_lcd.obj (.text:Board_Lcd_writeString)
                  00017daf    00000001     --HOLE-- [fill = 0]
                  00017db0    00000012     maclib_secure.a : fh_nt.obj (.text:FHNT_assessTime)
                  00017dc2    00000012                     : fh_util.obj (.text:FHUTIL_getElapsedTime)
                  00017dd4    00000012     rf_multiMode_cc13x0.aem3 : RFCC26XX_multiMode.oem3 (.text:RF_getCmdOp)
                  00017de6    00000012     drivers_cc13x0.aem3 : RingBuf.oem3 (.text:RingBuf_construct)
                  00017df8    00000012     dpl_cc13x0.aem3 : SemaphoreP_tirtos.oem3 (.text:SemaphoreP_pend)
                  00017e0a    00000012     maclib_secure.a : mac_radio.obj (.text:macRadioSetTxPower)
                  00017e1c    00000012                     : mac_security_pib.obj (.text:macSecurityPibIndex)
                  00017e2e    00000012     osal.obj (.text:osal_msg_deallocate)
                  00017e40    00000012     app_pem3.oem3 (.text:xdc_runtime_Startup_exec__I)
                  00017e52    00000002     --HOLE-- [fill = 0]
                  00017e54    00000010     api_mac.obj (.text:ApiMac_mlmeGetReqArray)
                  00017e64    00000010     api_mac.obj (.text:ApiMac_mlmeGetReqUint16)
                  00017e74    00000010     api_mac.obj (.text:ApiMac_mlmeGetReqUint32)
                  00017e84    00000010     api_mac.obj (.text:ApiMac_mlmeSetReqArray)
                  00017e94    00000010     api_mac.obj (.text:ApiMac_mlmeSetSecurityReqStruct)
                  00017ea4    00000010     dpl_cc13x0.aem3 : ClockP_tirtos.oem3 (.text:ClockP_isActive)
                  00017eb4    00000010     hal_appasrt.obj (.text:HAL_APPASRT_callAssrtHanlder)
                  00017ec4    00000010     dpl_cc13x0.aem3 : HwiP_tirtos.oem3 (.text:HwiP_Params_init)
                  00017ed4    00000010     icall_cc2650.obj (.text:ICallPlatform_pwrGetXOSCStartupTime)
                  00017ee4    00000010     driverlib.lib : rfc.obj (.text:NOROM_RFCHwIntGetAndClear)
                  00017ef4    00000010                   : rfc.obj (.text:NOROM_RFCRfTrimSet)
                  00017f04    00000010     drivers_cc13x0.aem3 : PINCC26XX.oem3 (.text:PINCC26XX_getPinCount)
                  00017f14    00000010     rf_multiMode_cc13x0.aem3 : RFCC26XX_multiMode.oem3 (.text:RF_dbellSubmitCmdAsync)
                  00017f24    00000010                              : RFCC26XX_multiMode.oem3 (.text:RF_isClientOwner)
                  00017f34    00000010     dpl_cc13x0.aem3 : SwiP_tirtos.oem3 (.text:SwiP_Params_init)
                  00017f44    00000010     timer.obj (.text:Timer_isActive)
                  00017f54    00000010     maclib_secure.a : mac_device.obj (.text:macAssocRxDisassoc)
                  00017f64    00000010                     : mac.obj (.text:macRadioPowerCtrlFEM)
                  00017f74    00000010                     : mac_rx_onoff.obj (.text:macRxEnable)
                  00017f84    00000010                     : mac_main.obj (.text:macSetEvent16)
                  00017f94    00000010                     : mac_main.obj (.text:macSetEvent)
                  00017fa4    00000010     nvocop.obj (.text:setXferPage$29)
                  00017fb4    00000010     rom_sysbios.aem3 : rom_sysbios.obj (.text:ti_sysbios_family_arm_m3_Hwi_post__E)
                  00017fc4    00000010     maclib_secure.a : mac_tx.obj (.text:txLbtPrep$84)
                  00017fd4    00000010     drivers_cc13x0.aem3 : UARTCC26XX.oem3 (.text:uartPostNotify)
                  00017fe4    00000010     rom_sysbios.aem3 : rom_sysbios.obj (.text:xdc_runtime_SysCallback_putch__E)
                  00017ff4    00000010                      : rom_sysbios.obj (.text:xdc_runtime_SysCallback_ready__E)
                  00018004    00000010                      : rom_sysbios.obj (.text:xdc_runtime_System_vsnprintf__E)
                  00018014    0000000e     maclib_secure.a : fh_mgr.obj (.text:FHMGR_macGetElapsedFHTime)
                  00018022    0000000e     icall_cc2650.obj (.text:ICallPlatform_pwrGetTransitionState)
                  00018030    0000000e     icall_cc2650.obj (.text:ICallPlatform_pwrIsStableXOSCHF)
                  0001803e    0000000e     driverlib.lib : vims.obj (.text:NOROM_VIMSModeGet)
                  0001804c    0000000e     rtsv7M3_T_le_eabi.lib : copy_decompress_none.c.obj (.text:decompress:none:__TI_decompress_none)
                  0001805a    0000000e     sensor.obj (.text:jdllcDisassocCnfCb$37)
                  00018068    0000000e     sensor.obj (.text:jdllcDisassocIndCb$37)
                  00018076    0000000e     rom_sysbios.aem3 : rom_sysbios.obj (.text:ti_sysbios_family_arm_cc26xx_TimestampProvider_get32__E)
                  00018084    0000000c     drivers_cc13x0.aem3 : CryptoCC26XX.oem3 (.text:CryptoCC26XX_init)
                  00018090    0000000c     driverlib.lib : cpu.obj (.text:NOROM_CPUcpsid)
                  0001809c    0000000c                   : cpu.obj (.text:NOROM_CPUcpsie)
                  000180a8    0000000c                   : osc.obj (.text:NOROM_OSC_HPOSCRelativeFrequencyOffsetToRFCoreFormatConvert)
                  000180b4    0000000c     drivers_cc13x0.aem3 : PINCC26XX.oem3 (.text:PIN_registerIntCb)
                  000180c0    0000000c                         : PowerCC26XX.oem3 (.text:Power_getConstraintMask)
                  000180cc    0000000c                         : PowerCC26XX.oem3 (.text:Power_getDependencyCount)
                  000180d8    0000000c                         : PowerCC26XX.oem3 (.text:Power_getTransitionState)
                  000180e4    0000000c     rf_multiMode_cc13x0.aem3 : RFCC26XX_multiMode.oem3 (.text:RF_powerConstraintGet)
                  000180f0    0000000c     util.obj (.text:Util_bufferUint16)
                  000180fc    0000000c     util.obj (.text:Util_parseUint16)
                  00018108    0000000c     rtsv7M3_T_le_eabi.lib : _lock.c.obj (.text:_register_lock)
                  00018114    0000000c                           : _lock.c.obj (.text:_register_unlock)
                  00018120    0000000c     board_led.obj (.text:board_led_convertLedValue$7)
                  0001812c    0000000c     rtsv7M3_T_le_eabi.lib : copy_zero_init.c.obj (.text:decompress:ZI:__TI_zero_init)
                  00018138    0000000c     maclib_secure.a : mac_data.obj (.text:macDataRxMemFree)
                  00018144    0000000c                     : mac_mgmt.obj (.text:macIsCsmOperational)
                  00018150    0000000c                     : mac_radio_tx.obj (.text:macRadioTxCancelAckTimeout)
                  0001815c    0000000c                     : mac_radio_tx.obj (.text:macRadioTxCancelTxAck)
                  00018168    0000000c     osal.obj (.text:osal_self)
                  00018174    0000000c     rom_sysbios.aem3 : rom_sysbios.obj (.text:ti_sysbios_BIOS_getThreadType__E)
                  00018180    0000000c                      : rom_sysbios_config.obj (.text:ti_sysbios_hal_Hwi_Params__init__S)
                  0001818c    0000000c                      : rom_sysbios.obj (.text:ti_sysbios_knl_Swi_getTrigger__E)
                  00018198    0000000c     app_pem3.oem3 (.text:xdc_runtime_Startup_reset__I)
                  000181a4    0000000c     rom_sysbios.aem3 : rom_sysbios.obj (.text:xdc_runtime_Startup_rtsDone__E)
                  000181b0    0000000a     hal_flash_wrapper.obj (.text:HalFlashWrite)
                  000181ba    0000000a     icall_cc2650.obj (.text:ICallPlatform_pwrSwitchXOSCHF)
                  000181c4    0000000a     maclib_secure.a : mac_device.obj (.text:MAC_MlmeAssociateReq)
                  000181ce    0000000a                     : mac_mgmt.obj (.text:MAC_MlmeDisassociateReq)
                  000181d8    0000000a     drivers_cc13x0.aem3 : UART.oem3 (.text:UART_write)
                  000181e2    0000000a     util.obj (.text:Util_copyExtAddr)
                  000181ec    0000000a     board_led.obj (.text:board_led_convertLedType$7)
                  000181f6    0000000a     maclib_secure.a : mac_mcu.obj (.text:macMcuRandomByte)
                  00018200    00000008     drivers_cc13x0.aem3 : CryptoCC26XX.oem3 (.text:CryptoCC26XX_Params_init)
                  00018208    00000008     maclib_secure.a : mac_device.obj (.text:MAC_MlmePollReq)
                  00018210    00000008                     : mac_mgmt.obj (.text:MAC_MlmeSyncReq)
                  00018218    00000008     rf_multiMode_cc13x0.aem3 : RFCC26XX_multiMode.oem3 (.text:RF_RatConfigOutput_init)
                  00018220    00000008                              : RFCC26XX_multiMode.oem3 (.text:RF_ScheduleCmdParams_init)
                  00018228    00000008                              : RFCC26XX_multiMode.oem3 (.text:RF_flushCmd)
                  00018230    00000008     timer.obj (.text:Timer_setTimeout)
                  00018238    00000008     util.obj (.text:Util_breakUint32)
                  00018240    00000008     drivers_cc13x0.aem3 : CryptoCC26XX.oem3 (.text:cryptoPostNotify)
                  00018248    00000008     maclib_secure.a : mac_symbol_timer.obj (.text:macCsmaTimerExpiry)
                  00018250    00000008     drivers_cc13x0.aem3 : UARTCC26XX.oem3 (.text:readSemCallback)
                  00018258    00000008                         : UARTCC26XX.oem3 (.text:writeSemCallback)
                  00018260    00000008     app_pem3.oem3 (.text:xdc_runtime_Text_visitRope__I)
                  00018268    00000006     dpl_cc13x0.aem3 : ClockP_tirtos.oem3 (.text:ClockP_Params_init)
                  0001826e    00000006     drivers_cc13x0.aem3 : CryptoCC26XX.oem3 (.text:CryptoCC26XX_transact)
                  00018274    00000006                         : CryptoCC26XX.oem3 (.text:CryptoCC26XX_transactCallback)
                  0001827a    00000006                         : CryptoCC26XX.oem3 (.text:CryptoCC26XX_transactPolling)
                  00018280    00000006     maclib_secure.a : fh_data.obj (.text:FHDATA_asyncMinTxOffTimerCb)
                  00018286    00000006                     : fh_data.obj (.text:FHDATA_procEDFEReq)
                  0001828c    00000006                     : fh_data.obj (.text:FHDATA_startEDFEReq)
                  00018292    00000006                     : fh_mgr.obj (.text:FHMGR_BCTimerEventUpd)
                  00018298    00000006                     : fh_mgr.obj (.text:FHMGR_pendBcChUpdate)
                  0001829e    00000006                     : fh_mgr.obj (.text:FHMGR_pendUcChUpdate)
                  000182a4    00000006     main.obj (.text:Main_excHandler)
                  000182aa    00000006     driverlib.lib : cpu.obj (.text:NOROM_CPUdelay)
                  000182b0    00000006     rf_multiMode_cc13x0.aem3 : RFCC26XX_multiMode.oem3 (.text:RF_clkReqAccess)
                  000182b6    00000006                              : RFCC26XX_multiMode.oem3 (.text:RF_runDirectCmd)
                  000182bc    00000006                              : RFCC26XX_multiMode.oem3 (.text:RF_runImmediateCmd)
                  000182c2    00000006     ssf.obj (.text:Ssf_displayError)
                  000182c8    00000006     drivers_cc13x0.aem3 : UARTCC26XX.oem3 (.text:UARTCC26XX_readPolling)
                  000182ce    00000006                         : UARTCC26XX.oem3 (.text:UARTCC26XX_writePolling)
                  000182d4    00000006     main.obj (.text:halAssertHandler)
                  000182da    00000006     maclib_secure.a : mac_mgmt.obj (.text:macApiBadState)
                  000182e0    00000006                     : mac_beacon_device.obj (.text:macBroadcastPendCallback)
                  000182e6    00000006     main.obj (.text:macHalAssertHandler)
                  000182ec    00000006     maclib_secure.a : mac_mgmt.obj (.text:macSecCpy)
                  000182f2    00000006     saddr.obj (.text:sAddrExtCpy)
                  000182f8    00000006     rom_sysbios.aem3 : rom_sysbios.obj (.text:ti_sysbios_family_arm_m3_Hwi_setFunc__E)
                  000182fe    00000004     dpl_cc13x0.aem3 : PowerCC26XX_tirtos.oem3 (.text:CPUwfi)
                  00018302    00000004                     : ClockP_tirtos.oem3 (.text:ClockP_destruct)
                  00018306    00000004                     : ClockP_tirtos.oem3 (.text:ClockP_getCpuFreq)
                  0001830a    00000004                     : ClockP_tirtos.oem3 (.text:ClockP_getTimeout)
                  0001830e    00000004                     : ClockP_tirtos.oem3 (.text:ClockP_setTimeout)
                  00018312    00000004                     : ClockP_tirtos.oem3 (.text:ClockP_start)
                  00018316    00000004                     : ClockP_tirtos.oem3 (.text:ClockP_stop)
                  0001831a    00000004     drivers_cc13x0.aem3 : CryptoCC26XX.oem3 (.text:CryptoCC26XX_Transac_init)
                  0001831e    00000004     maclib_secure.a : fh_util.obj (.text:FHUTIL_assert)
                  00018322    00000004                     : fh_util.obj (.text:FHUTIL_elapsedTime)
                  00018326    00000004     dpl_cc13x0.aem3 : HwiP_tirtos.oem3 (.text:HwiP_destruct)
                  0001832a    00000004                     : HwiP_tirtos.oem3 (.text:HwiP_disable)
                  0001832e    00000004                     : HwiP_tirtos.oem3 (.text:HwiP_enableInterrupt)
                  00018332    00000004                     : HwiP_tirtos.oem3 (.text:HwiP_post)
                  00018336    00000004                     : HwiP_tirtos.oem3 (.text:HwiP_setFunc)
                  0001833a    00000004                     : HwiP_tirtos.oem3 (.text:HwiP_setPriority)
                  0001833e    00000004     drivers_cc13x0.aem3 : PowerCC26XX.oem3 (.text:PowerCC26XX_switchXOSC_HF)
                  00018342    00000004     dpl_cc13x0.aem3 : SemaphoreP_tirtos.oem3 (.text:SemaphoreP_destruct)
                  00018346    00000004                     : SemaphoreP_tirtos.oem3 (.text:SemaphoreP_post)
                  0001834a    00000004                     : SwiP_tirtos.oem3 (.text:SwiP_destruct)
                  0001834e    00000004                     : SwiP_tirtos.oem3 (.text:SwiP_disable)
                  00018352    00000004                     : SwiP_tirtos.oem3 (.text:SwiP_getTrigger)
                  00018356    00000004                     : SwiP_tirtos.oem3 (.text:SwiP_or)
                  0001835a    00000004                     : SwiP_tirtos.oem3 (.text:SwiP_setPriority)
                  0001835e    00000004     timer.obj (.text:Timer_start)
                  00018362    00000004     timer.obj (.text:Timer_stop)
                  00018366    00000004     sensor.obj (.text:jdllcStateChangeCb$37)
                  0001836a    00000004     maclib_secure.a : mac_device.obj (.text:macPanConflictComplete)
                  0001836e    00000004                     : mac_radio.obj (.text:macRadioComputeLQI)
                  00018372    00000004                     : mac.obj (.text:macRxCb$75)
                  00018376    00000004     drivers_cc13x0.aem3 : PowerCC26XX.oem3 (.text:nopResourceHandler)
                  0001837a    00000004     osal.obj (.text:osal_memset)
                  0001837e    00000004     osal.obj (.text:osal_strlen)
                  00018382    00000004     mac_user_config.obj (.text:rf_patch_cpe_genfsk$35)
                  00018386    00000004     rom_sysbios.aem3 : rom_sysbios.obj (.text:ti_sysbios_family_arm_cc26xx_Timer_getCount64__E)
                  0001838a    00000004                      : rom_sysbios.obj (.text:ti_sysbios_knl_Clock_isActive__E)
                  0001838e    00000004                      : rom_sysbios.obj (.text:xdc_runtime_SysCallback_defaultReady)
                  00018392    00000004                      : rom_sysbios.obj (.text:xdc_runtime_System_printf_va__F)
                  00018396    00000002     --HOLE-- [fill = 0]
                  00018398    00000008     (.tramp.ti_sysbios_knl_Swi_destruct.1)
                  000183a0    00000008     (.tramp.ti_sysbios_knl_Semaphore_destruct.1)
                  000183a8    00000008     (.tramp.ti_sysbios_family_arm_m3_Hwi_setPriority__E.1)
                  000183b0    00000008     (.tramp.ti_sysbios_family_arm_m3_Hwi_enableInterrupt__E.1)
                  000183b8    00000008     (.tramp.ti_sysbios_family_arm_m3_Hwi_disableFxn__E.1)
                  000183c0    00000008     (.tramp.ti_sysbios_family_arm_m3_Hwi_destruct.1)
                  000183c8    00000008     (.tramp.ti_sysbios_BIOS_getCpuFreq__E.1)
                  000183d0    00000008     (.tramp.ti_sysbios_knl_Clock_destruct.1)
                  000183d8    00000008     (.tramp.xdc_runtime_Core_assignParams__I.1)
                  000183e0    00000008     (.tramp.xdc_runtime_Startup_startMods__I.1)
                  000183e8    00000008     (.tramp.ti_sysbios_knl_Semaphore_pend__E.1)
                  000183f0    00000008     (.tramp.ti_sysbios_knl_Clock_logTick__E.1)
                  000183f8    00000008     (.tramp.ti_sysbios_knl_Swi_post__E.1)
                  00018400    00000008     (.tramp.ti_sysbios_BIOS_RtsGateProxy_leave__E.1)
                  00018408    00000008     (.tramp.ti_sysbios_knl_Swi_construct.1)
                  00018410    00000008     (.tramp.ti_sysbios_BIOS_RtsGateProxy_enter__E.1)
                  00018418    00000008     (.tramp.ti_sysbios_knl_Task_restore__E.1)
                  00018420    00000008     (.tramp.ti_sysbios_knl_Semaphore_construct.1)
                  00018428    00000008     (.tramp.ti_sysbios_knl_Semaphore_Params__init__S.1)
                  00018430    00000008     (.tramp.ti_sysbios_knl_Task_startup__E.1)
                  00018438    00000008     (.tramp.ti_sysbios_knl_Swi_startup__E.1)
                  00018440    00000008     (.tramp.ti_sysbios_hal_Hwi_startup__E.1)
                  00018448    00000008     (.tramp.ti_sysbios_family_arm_cc26xx_Timer_startup__E.1)
                  00018450    00000008     (.tramp.xdc_runtime_System_atexit__E.1)
                  00018458    00000008     (.tramp.ti_sysbios_BIOS_setThreadType__E.1)
                  00018460    00000008     (.tramp.ti_sysbios_knl_Task_disable__E.1)
                  00018468    00000008     (.tramp.ti_sysbios_knl_Swi_disable__E.1)
                  00018470    00000008     (.tramp.ti_sysbios_knl_Queue_Object__get__S.1)
                  00018478    00000008     (.tramp.ti_sysbios_family_arm_m3_Hwi_construct.1)
                  00018480    00000008     (.tramp.ti_sysbios_knl_Swi_Params__init__S.1)
                  00018488    00000008     (.tramp.ti_sysbios_family_arm_m3_Hwi_Params__init__S.1)
                  00018490    00000008     (.tramp.xdc_runtime_System_exit__E.1)
                  00018498    00000008     (.tramp.ti_sysbios_knl_Clock_construct.1)
                  000184a0    00000008     (.tramp.ti_sysbios_knl_Clock_Params__init__S.1)
                  000184a8    00000008     (.tramp.ti_sysbios_knl_Clock_getTicks__E.1)
                  000184b0    00000008     (.tramp.ti_sysbios_knl_Clock_scheduleNextTick__E.1)
                  000184b8    00000008     (.tramp.ti_sysbios_knl_Clock_walkQueueDynamic__E.1)
                  000184c0    00000008     (.tramp.ti_sysbios_knl_Clock_TimerProxy_getCurrentTick__E.1)
                  000184c8    00000008     (.tramp.ti_sysbios_BIOS_start__E.1)
                  000184d0    00000008     (.tramp.ti_sysbios_knl_Task_construct.1)
                  000184d8    00000008     (.tramp.ti_sysbios_knl_Task_Params__init__S.1)
                  000184e0    00000008     (.tramp.ti_sysbios_knl_Clock_start__E.1)
                  000184e8    00000008     (.tramp.ti_sysbios_knl_Clock_setTimeout__E.1)
                  000184f0    00000008     (.tramp.ti_sysbios_knl_Swi_restore__E.1)
                  000184f8    00000008     (.tramp.ti_sysbios_family_arm_m3_Hwi_restoreFxn__E.1)
                  00018500    00000008     (.tramp.ti_sysbios_knl_Semaphore_post__E.1)

config_const
*          0    00018508    00000ab8
                  00018508    00000964     mac_user_config.obj (.const:$O26$$)
                  00018e6c    00000068     mac_user_config.obj (.const:rfDriverTable)
                  00018ed4    00000055     mac_user_config.obj (.const:txPowerTable_subg_CC1310)
                  00018f29    00000050     mac_user_config.obj (.const:txPowerTable_subg_CC1350)
                  00018f79    00000001     mac_user_config.obj (.const)
                  00018f7a    00000002     --HOLE-- [fill = 0]
                  00018f7c    00000028     mac_user_config.obj (.const:cryptoDriverTable)
                  00018fa4    00000010     mac_user_config.obj (.const:rfPatchTable)
                  00018fb4    0000000c     mac_user_config.obj (.const:txPwrTbl)

flash_last_text
*          0    0001f000    00000ae0
                  0001f000    00000106     icall.obj (.text:ICall_primWaitMatch$0)
                  0001f106    00000002     --HOLE-- [fill = 0]
                  0001f108    00000008     (.tramp.ti_sysbios_knl_Task_self__E.1)
                  0001f110    00000008     (.tramp.ti_sysbios_knl_Clock_getTicks__E.2)
                  0001f118    00000008     (.tramp.ti_sysbios_knl_Semaphore_pend__E.2)
                  0001f120    00000008     (.tramp.ti_sysbios_knl_Semaphore_post__E.2)
                  0001f128    00000098     icall.obj (.text:ICall_primSetTimer$0)
                  0001f1c0    00000008     (.tramp.ti_sysbios_knl_Clock_Params__init__S.2)
                  0001f1c8    00000008     (.tramp.ti_sysbios_knl_Clock_create.1)
                  0001f1d0    00000008     (.tramp.ti_sysbios_knl_Clock_setTimeout__E.2)
                  0001f1d8    00000008     (.tramp.ti_sysbios_knl_Clock_start__E.2)
                  0001f1e0    00000094     icall.obj (.text:icall_directAPI)
                  0001f274    0000007c     icall.obj (.text:ICall_heapMalloc)
                  0001f2f0    00000074     icall.obj (.text:ICall_primSend$0)
                  0001f364    0000006c     icall.obj (.text:ICall_createRemoteTasks)
                  0001f3d0    00000008     (.tramp.ti_sysbios_knl_Task_disable__E.2)
                  0001f3d8    00000008     (.tramp.ti_sysbios_knl_Task_Params__init__S.2)
                  0001f3e0    00000008     (.tramp.ti_sysbios_knl_Task_create.1)
                  0001f3e8    00000008     (.tramp.ti_sysbios_knl_Task_restore__E.2)
                  0001f3f0    00000064     icall.obj (.text:ICall_primEnroll$0)
                  0001f454    00000060     icall.obj (.text:ICall_primRegisterApp$0)
                  0001f4b4    0000005c     icall.obj (.text:ICall_primThreadServes$0)
                  0001f510    00000054     icall.obj (.text:ICall_primFetchMsg$0)
                  0001f564    00000052     icall.obj (.text:ICall_primWait$0)
                  0001f5b6    00000002     --HOLE-- [fill = 0]
                  0001f5b8    0000004c     icall.obj (.text:ICall_primGetEntityId$0)
                  0001f604    00000044     icall.obj (.text:ICall_newTask$0)
                  0001f648    00000008     (.tramp.ti_sysbios_knl_Semaphore_create.1)
                  0001f650    00000042     icall.obj (.text:ICall_primCreateTask$0)
                  0001f692    00000002     --HOLE-- [fill = 0]
                  0001f694    00000038     icall.obj (.text:ICall_primGetMaxMSecs$0)
                  0001f6cc    00000038     icall.obj (.text:ICall_primRegisterISR$0)
                  0001f704    00000008     (.tramp.ti_sysbios_hal_Hwi_create.1)
                  0001f70c    00000038     icall.obj (.text:ICall_primRegisterISR_Ext$0)
                  0001f744    00000038     icall.obj (.text:ICall_waitMatch$0)
                  0001f77c    00000034     icall.obj (.text:ICall_primEntityId2ServiceId$0)
                  0001f7b0    00000034     icall.obj (.text:ICall_searchServiceEntity)
                  0001f7e4    00000030     icall.obj (.text:ICall_dispatch$0)
                  0001f814    00000030     icall.obj (.text:ICall_msecs2Ticks$0)
                  0001f844    00000030     icall.obj (.text:ICall_searchTask$0)
                  0001f874    0000002c     icall.obj (.text:ICall_heapFree)
                  0001f8a0    0000002c     icall.obj (.text:ICall_msgEnqueue$0)
                  0001f8cc    0000002c     icall.obj (.text:ICall_primAllocMsg$0)
                  0001f8f8    0000002c     icall.obj (.text:ICall_primFetchServiceMsg$0)
                  0001f924    00000020     icall.obj (.text:ICall_freeMsg$0)
                  0001f944    00000020     icall.obj (.text:ICall_primService$0)
                  0001f964    0000001e     icall.obj (.text:ICall_primSendServiceMsg$0)
                  0001f982    0000001a     icall.obj (.text:ICall_enterCSImpl)
                  0001f99c    00000008     (.tramp.ti_sysbios_family_arm_m3_Hwi_disableFxn__E.2)
                  0001f9a4    0000001a     icall.obj (.text:ICall_primSetTimerMSecs$0)
                  0001f9be    00000018     icall.obj (.text:ICall_primMalloc$0)
                  0001f9d6    00000016     icall.obj (.text:ICall_leaveCSImpl)
                  0001f9ec    00000008     (.tramp.ti_sysbios_family_arm_m3_Hwi_restoreFxn__E.2)
                  0001f9f4    00000016     icall.obj (.text:ICall_primStopTimer$0)
                  0001fa0a    00000002     --HOLE-- [fill = 0]
                  0001fa0c    00000010     icall.obj (.text:ICall_primGetTickPeriod$0)
                  0001fa1c    00000010     icall.obj (.text:ICall_taskEntry$0)
                  0001fa2c    0000000e     icall.obj (.text:ICall_primDisableMInt$0)
                  0001fa3a    0000000e     icall.obj (.text:ICall_primEnableMInt$0)
                  0001fa48    00000008     (.tramp.ti_sysbios_family_arm_m3_Hwi_enableFxn__E.1)
                  0001fa50    00000008     (.tramp.ti_sysbios_knl_Task_enable__E.1)
                  0001fa58    0000000e     icall.obj (.text:ICall_primFreeMsg$0)
                  0001fa66    0000000e     icall.obj (.text:ICall_primGetTicks$0)
                  0001fa74    0000000c     icall.obj (.text:ICall_clockFunc$0)
                  0001fa80    0000000c     icall.obj (.text:ICall_primDisableInt$0)
                  0001fa8c    00000008     (.tramp.ti_sysbios_hal_Hwi_disableInterrupt__E.1)
                  0001fa94    0000000c     icall.obj (.text:ICall_primEnableInt$0)
                  0001faa0    00000008     (.tramp.ti_sysbios_hal_Hwi_enableInterrupt__E.1)
                  0001faa8    0000000c     icall.obj (.text:ICall_primFree$0)
                  0001fab4    0000000c     icall.obj (.text:ICall_primSignal$0)
                  0001fac0    0000000c     icall.obj (.text:matchLiteCS$0)
                  0001facc    0000000a     icall.obj (.text:ICall_primAbort$0)
                  0001fad6    0000000a     icall.obj (.text:ICall_primE2S$0)

.cinit     0    00018fc0    000004c0
                  00018fc0    00000388     (.cinit..data.load) [load image, compression = lzss]
                  00019348    00000028     (.cinit..data:ti_sysbios_family_arm_m3_Hwi_Module__state__V.load) [load image, compression = lzss]
                  00019370    00000021     (.cinit..data:ti_sysbios_knl_Task_Module__state__V.load) [load image, compression = lzss]
                  00019391    0000001f     (.cinit..data:ti_sysbios_BIOS_Module__state__V.load) [load image, compression = lzss]
                  000193b0    0000001e     (.cinit..data:ti_sysbios_knl_Clock_Module__state__V.load) [load image, compression = lzss]
                  000193ce    00000010     (.cinit..data:ti_sysbios_knl_Swi_Module__state__V.load) [load image, compression = lzss]
                  000193de    00000002     --HOLE-- [fill = 0]
                  000193e0    0000000c     (__TI_handler_table)
                  000193ec    0000000b     (.cinit..data:ti_sysbios_family_arm_cc26xx_Timer_Module__state__V.load) [load image, compression = lzss]
                  000193f7    00000001     --HOLE-- [fill = 0]
                  000193f8    00000008     (.cinit..bss.load) [load image, compression = zero_init]
                  00019400    00000008     (.cinit..data:xdc_runtime_Memory_Module__state__V.load) [load image, compression = lzss]
                  00019408    00000007     (.cinit..data:ti_sysbios_family_arm_cc26xx_TimestampProvider_Module__state__V.load) [load image, compression = lzss]
                  0001940f    00000007     (.cinit..data:xdc_runtime_Startup_Module__state__V.load) [load image, compression = lzss]
                  00019416    00000007     (.cinit..data:xdc_runtime_System_Module__state__V.load) [load image, compression = lzss]
                  0001941d    00000003     --HOLE-- [fill = 0]
                  00019420    00000060     (__TI_cinit_table)

.init_array
*          0    00000000    00000000     UNINITIALIZED

.const:ti_sysbios_knl_Task_Object__PARAMS__C
*          0    00001000    0000003c
                  00001000    0000003c     app_pem3.oem3 (.const:ti_sysbios_knl_Task_Object__PARAMS__C)

.const:ti_sysbios_knl_Mailbox_Object__PARAMS__C
*          0    0000103c    00000034
                  0000103c    00000034     app_pem3.oem3 (.const:ti_sysbios_knl_Mailbox_Object__PARAMS__C)

.const:ti_sysbios_family_arm_m3_Hwi_Object__PARAMS__C
*          0    00001070    00000030
                  00001070    00000030     app_pem3.oem3 (.const:ti_sysbios_family_arm_m3_Hwi_Object__PARAMS__C)

.const:ti_sysbios_hal_Hwi_Object__PARAMS__C
*          0    000010a0    0000002c
                  000010a0    0000002c     app_pem3.oem3 (.const:ti_sysbios_hal_Hwi_Object__PARAMS__C)

.const:ti_sysbios_heaps_HeapMem_Module__FXNS__C
*          0    000010cc    00000028
                  000010cc    00000028     app_pem3.oem3 (.const:ti_sysbios_heaps_HeapMem_Module__FXNS__C)

.const:ti_sysbios_knl_Swi_Object__PARAMS__C
*          0    000010f4    00000028
                  000010f4    00000028     app_pem3.oem3 (.const:ti_sysbios_knl_Swi_Object__PARAMS__C)

.const:ti_sysbios_gates_GateHwi_Module__FXNS__C
*          0    0000111c    00000024
                  0000111c    00000024     app_pem3.oem3 (.const:ti_sysbios_gates_GateHwi_Module__FXNS__C)

.const:ti_sysbios_gates_GateMutex_Module__FXNS__C
*          0    00001140    00000024
                  00001140    00000024     app_pem3.oem3 (.const:ti_sysbios_gates_GateMutex_Module__FXNS__C)

.const:ti_sysbios_heaps_HeapMem_Object__PARAMS__C
*          0    00001164    00000024
                  00001164    00000024     app_pem3.oem3 (.const:ti_sysbios_heaps_HeapMem_Object__PARAMS__C)

.const:ti_sysbios_knl_Clock_Object__PARAMS__C
*          0    00001188    00000024
                  00001188    00000024     app_pem3.oem3 (.const:ti_sysbios_knl_Clock_Object__PARAMS__C)

.const:ti_sysbios_knl_Semaphore_Object__PARAMS__C
*          0    000011ac    00000024
                  000011ac    00000024     app_pem3.oem3 (.const:ti_sysbios_knl_Semaphore_Object__PARAMS__C)

.const:ti_sysbios_family_arm_m3_Hwi_Object__DESC__C
*          0    000011d0    00000020
                  000011d0    00000020     app_pem3.oem3 (.const:ti_sysbios_family_arm_m3_Hwi_Object__DESC__C)

.const:ti_sysbios_gates_GateHwi_Object__DESC__C
*          0    000011f0    00000020
                  000011f0    00000020     app_pem3.oem3 (.const:ti_sysbios_gates_GateHwi_Object__DESC__C)

.const:ti_sysbios_gates_GateMutex_Object__DESC__C
*          0    00001210    00000020
                  00001210    00000020     app_pem3.oem3 (.const:ti_sysbios_gates_GateMutex_Object__DESC__C)

.const:ti_sysbios_hal_Hwi_Object__DESC__C
*          0    00001230    00000020
                  00001230    00000020     app_pem3.oem3 (.const:ti_sysbios_hal_Hwi_Object__DESC__C)

.const:ti_sysbios_heaps_HeapMem_Object__DESC__C
*          0    00001250    00000020
                  00001250    00000020     app_pem3.oem3 (.const:ti_sysbios_heaps_HeapMem_Object__DESC__C)

.const:ti_sysbios_knl_Clock_Object__DESC__C
*          0    00001270    00000020
                  00001270    00000020     app_pem3.oem3 (.const:ti_sysbios_knl_Clock_Object__DESC__C)

.const:ti_sysbios_knl_Mailbox_Object__DESC__C
*          0    00001290    00000020
                  00001290    00000020     app_pem3.oem3 (.const:ti_sysbios_knl_Mailbox_Object__DESC__C)

.const:ti_sysbios_knl_Queue_Object__DESC__C
*          0    000012b0    00000020
                  000012b0    00000020     app_pem3.oem3 (.const:ti_sysbios_knl_Queue_Object__DESC__C)

.const:ti_sysbios_knl_Semaphore_Object__DESC__C
*          0    000012d0    00000020
                  000012d0    00000020     app_pem3.oem3 (.const:ti_sysbios_knl_Semaphore_Object__DESC__C)

.const:ti_sysbios_knl_Swi_Object__DESC__C
*          0    000012f0    00000020
                  000012f0    00000020     app_pem3.oem3 (.const:ti_sysbios_knl_Swi_Object__DESC__C)

.const:ti_sysbios_knl_Task_Object__DESC__C
*          0    00001310    00000020
                  00001310    00000020     app_pem3.oem3 (.const:ti_sysbios_knl_Task_Object__DESC__C)

.const:ti_sysbios_gates_GateHwi_Object__PARAMS__C
*          0    00001330    00000018
                  00001330    00000018     app_pem3.oem3 (.const:ti_sysbios_gates_GateHwi_Object__PARAMS__C)

.const:ti_sysbios_gates_GateMutex_Object__PARAMS__C
*          0    00001348    00000018
                  00001348    00000018     app_pem3.oem3 (.const:ti_sysbios_gates_GateMutex_Object__PARAMS__C)

.const:ti_sysbios_knl_Queue_Object__PARAMS__C
*          0    00001360    00000018
                  00001360    00000018     app_pem3.oem3 (.const:ti_sysbios_knl_Queue_Object__PARAMS__C)

.const:ti_sysbios_knl_Idle_funcList__C
*          0    00001378    00000008
                  00001378    00000008     app_pem3.oem3 (.const:ti_sysbios_knl_Idle_funcList__C)

.const:ti_sysbios_family_arm_cc26xx_Timer_startupNeeded__C
*          0    00001384    00000004
                  00001384    00000004     app_pem3.oem3 (.const:ti_sysbios_family_arm_cc26xx_Timer_startupNeeded__C)

.const:ti_sysbios_family_arm_m3_Hwi_E_alreadyDefined__C
*          0    00001388    00000004
                  00001388    00000004     app_pem3.oem3 (.const:ti_sysbios_family_arm_m3_Hwi_E_alreadyDefined__C)

.const:ti_sysbios_family_arm_m3_Hwi_E_hwiLimitExceeded__C
*          0    0000138c    00000004
                  0000138c    00000004     app_pem3.oem3 (.const:ti_sysbios_family_arm_m3_Hwi_E_hwiLimitExceeded__C)

.const:ti_sysbios_family_arm_m3_Hwi_NUM_INTERRUPTS__C
*          0    00001390    00000004
                  00001390    00000004     app_pem3.oem3 (.const:ti_sysbios_family_arm_m3_Hwi_NUM_INTERRUPTS__C)

.const:ti_sysbios_family_arm_m3_Hwi_Object__count__C
*          0    00001394    00000004
                  00001394    00000004     app_pem3.oem3 (.const:ti_sysbios_family_arm_m3_Hwi_Object__count__C)

.const:ti_sysbios_family_arm_m3_Hwi_Object__table__C
*          0    00001398    00000004
                  00001398    00000004     app_pem3.oem3 (.const:ti_sysbios_family_arm_m3_Hwi_Object__table__C)

.const:ti_sysbios_family_arm_m3_Hwi_ccr__C
*          0    0000139c    00000004
                  0000139c    00000004     app_pem3.oem3 (.const:ti_sysbios_family_arm_m3_Hwi_ccr__C)

.const:ti_sysbios_family_arm_m3_Hwi_excHandlerFunc__C
*          0    000013a0    00000004
                  000013a0    00000004     app_pem3.oem3 (.const:ti_sysbios_family_arm_m3_Hwi_excHandlerFunc__C)

.const:ti_sysbios_family_arm_m3_Hwi_nullIsrFunc__C
*          0    000013a4    00000004
                  000013a4    00000004     app_pem3.oem3 (.const:ti_sysbios_family_arm_m3_Hwi_nullIsrFunc__C)

.const:ti_sysbios_family_arm_m3_Hwi_numSparseInterrupts__C
*          0    000013a8    00000004
                  000013a8    00000004     app_pem3.oem3 (.const:ti_sysbios_family_arm_m3_Hwi_numSparseInterrupts__C)

.const:ti_sysbios_family_arm_m3_Hwi_priGroup__C
*          0    000013ac    00000004
                  000013ac    00000004     app_pem3.oem3 (.const:ti_sysbios_family_arm_m3_Hwi_priGroup__C)

.const:ti_sysbios_family_arm_m3_TaskSupport_stackAlignment__C
*          0    000013b0    00000004
                  000013b0    00000004     app_pem3.oem3 (.const:ti_sysbios_family_arm_m3_TaskSupport_stackAlignment__C)

.const:ti_sysbios_heaps_HeapMem_E_memory__C
*          0    000013b4    00000004
                  000013b4    00000004     app_pem3.oem3 (.const:ti_sysbios_heaps_HeapMem_E_memory__C)

.const:ti_sysbios_heaps_HeapMem_Module__gateObj__C
*          0    000013b8    00000004
                  000013b8    00000004     app_pem3.oem3 (.const:ti_sysbios_heaps_HeapMem_Module__gateObj__C)

.const:ti_sysbios_heaps_HeapMem_Object__count__C
*          0    000013bc    00000004
                  000013bc    00000004     app_pem3.oem3 (.const:ti_sysbios_heaps_HeapMem_Object__count__C)

.const:ti_sysbios_heaps_HeapMem_Object__table__C
*          0    000013c0    00000004
                  000013c0    00000004     app_pem3.oem3 (.const:ti_sysbios_heaps_HeapMem_Object__table__C)

.const:ti_sysbios_heaps_HeapMem_reqAlign__C
*          0    000013c4    00000004
                  000013c4    00000004     app_pem3.oem3 (.const:ti_sysbios_heaps_HeapMem_reqAlign__C)

.const:ti_sysbios_knl_Clock_serviceMargin__C
*          0    000013c8    00000004
                  000013c8    00000004     app_pem3.oem3 (.const:ti_sysbios_knl_Clock_serviceMargin__C)

.const:ti_sysbios_knl_Mailbox_Object__count__C
*          0    000013cc    00000004
                  000013cc    00000004     app_pem3.oem3 (.const:ti_sysbios_knl_Mailbox_Object__count__C)

.const:ti_sysbios_knl_Mailbox_Object__table__C
*          0    000013d0    00000004
                  000013d0    00000004     app_pem3.oem3 (.const:ti_sysbios_knl_Mailbox_Object__table__C)

.const:ti_sysbios_knl_Mailbox_maxTypeAlign__C
*          0    000013d4    00000004
                  000013d4    00000004     app_pem3.oem3 (.const:ti_sysbios_knl_Mailbox_maxTypeAlign__C)

.const:ti_sysbios_knl_Queue_Object__count__C
*          0    000013d8    00000004
                  000013d8    00000004     app_pem3.oem3 (.const:ti_sysbios_knl_Queue_Object__count__C)

.const:ti_sysbios_knl_Queue_Object__table__C
*          0    000013dc    00000004
                  000013dc    00000004     app_pem3.oem3 (.const:ti_sysbios_knl_Queue_Object__table__C)

.const:ti_sysbios_knl_Swi_Object__count__C
*          0    000013e0    00000004
                  000013e0    00000004     app_pem3.oem3 (.const:ti_sysbios_knl_Swi_Object__count__C)

.const:ti_sysbios_knl_Swi_Object__table__C
*          0    000013e4    00000004
                  000013e4    00000004     app_pem3.oem3 (.const:ti_sysbios_knl_Swi_Object__table__C)

.const:ti_sysbios_knl_Swi_numPriorities__C
*          0    000013e8    00000004
                  000013e8    00000004     app_pem3.oem3 (.const:ti_sysbios_knl_Swi_numPriorities__C)

.const:ti_sysbios_knl_Task_Object__count__C
*          0    000013ec    00000004
                  000013ec    00000004     app_pem3.oem3 (.const:ti_sysbios_knl_Task_Object__count__C)

.const:ti_sysbios_knl_Task_Object__table__C
*          0    000013f0    00000004
                  000013f0    00000004     app_pem3.oem3 (.const:ti_sysbios_knl_Task_Object__table__C)

.const:ti_sysbios_knl_Task_allBlockedFunc__C
*          0    000013f4    00000004
                  000013f4    00000004     app_pem3.oem3 (.const:ti_sysbios_knl_Task_allBlockedFunc__C)

.const:ti_sysbios_knl_Task_defaultStackHeap__C
*          0    000013f8    00000004
                  000013f8    00000004     app_pem3.oem3 (.const:ti_sysbios_knl_Task_defaultStackHeap__C)

.const:ti_sysbios_knl_Task_defaultStackSize__C
*          0    000013fc    00000004
                  000013fc    00000004     app_pem3.oem3 (.const:ti_sysbios_knl_Task_defaultStackSize__C)

.const:ti_sysbios_knl_Task_numConstructedTasks__C
*          0    00001400    00000004
                  00001400    00000004     app_pem3.oem3 (.const:ti_sysbios_knl_Task_numConstructedTasks__C)

.const:ti_sysbios_family_arm_cc26xx_Timer_Module__id__C
*          0    00001406    00000002
                  00001406    00000002     app_pem3.oem3 (.const:ti_sysbios_family_arm_cc26xx_Timer_Module__id__C)

.const:ti_sysbios_family_arm_cc26xx_TimestampProvider_useClockTimer__C
*          0    00001408    00000002
                  00001408    00000002     app_pem3.oem3 (.const:ti_sysbios_family_arm_cc26xx_TimestampProvider_useClockTimer__C)

.const:ti_sysbios_family_arm_m3_Hwi_Module__id__C
*          0    0000140a    00000002
                  0000140a    00000002     app_pem3.oem3 (.const:ti_sysbios_family_arm_m3_Hwi_Module__id__C)

.const:ti_sysbios_gates_GateHwi_Module__id__C
*          0    0000140c    00000002
                  0000140c    00000002     app_pem3.oem3 (.const:ti_sysbios_gates_GateHwi_Module__id__C)

.const:ti_sysbios_gates_GateMutex_Module__id__C
*          0    0000140e    00000002
                  0000140e    00000002     app_pem3.oem3 (.const:ti_sysbios_gates_GateMutex_Module__id__C)

.const:ti_sysbios_heaps_HeapMem_Module__id__C
*          0    00001410    00000002
                  00001410    00000002     app_pem3.oem3 (.const:ti_sysbios_heaps_HeapMem_Module__id__C)

.const:ti_sysbios_knl_Task_initStackFlag__C
*          0    00001412    00000002
                  00001412    00000002     app_pem3.oem3 (.const:ti_sysbios_knl_Task_initStackFlag__C)

.const:ti_sysbios_knl_Clock_tickMode__C
*          0    00001414    00000001
                  00001414    00000001     app_pem3.oem3 (.const:ti_sysbios_knl_Clock_tickMode__C)

.const:xdc_runtime_Startup_firstFxns__C
*          0    00001418    00000008
                  00001418    00000008     app_pem3.oem3 (.const:xdc_runtime_Startup_firstFxns__C)

.const:xdc_runtime_Startup_lastFxns__C
*          0    00001420    00000008
                  00001420    00000008     app_pem3.oem3 (.const:xdc_runtime_Startup_lastFxns__C)

.const:xdc_runtime_Assert_E_assertFailed__C
*          0    00001428    00000004
                  00001428    00000004     app_pem3.oem3 (.const:xdc_runtime_Assert_E_assertFailed__C)

.const:xdc_runtime_Error_E_memory__C
*          0    0000142c    00000004
                  0000142c    00000004     app_pem3.oem3 (.const:xdc_runtime_Error_E_memory__C)

.const:xdc_runtime_Error_policyFxn__C
*          0    00001430    00000004
                  00001430    00000004     app_pem3.oem3 (.const:xdc_runtime_Error_policyFxn__C)

.const:xdc_runtime_IGateProvider_Interface__BASE__C
*          0    00001434    00000004
                  00001434    00000004     app_pem3.oem3 (.const:xdc_runtime_IGateProvider_Interface__BASE__C)

.const:xdc_runtime_IHeap_Interface__BASE__C
*          0    00001438    00000004
                  00001438    00000004     app_pem3.oem3 (.const:xdc_runtime_IHeap_Interface__BASE__C)

.const:xdc_runtime_IModule_Interface__BASE__C
*          0    0000143c    00000004
                  0000143c    00000004     app_pem3.oem3 (.const:xdc_runtime_IModule_Interface__BASE__C)

.const:xdc_runtime_Main_Module__diagsEnabled__C
*          0    00001440    00000004
                  00001440    00000004     app_pem3.oem3 (.const:xdc_runtime_Main_Module__diagsEnabled__C)

.const:xdc_runtime_Main_Module__diagsIncluded__C
*          0    00001444    00000004
                  00001444    00000004     app_pem3.oem3 (.const:xdc_runtime_Main_Module__diagsIncluded__C)

.const:xdc_runtime_Main_Module__diagsMask__C
*          0    00001448    00000004
                  00001448    00000004     app_pem3.oem3 (.const:xdc_runtime_Main_Module__diagsMask__C)

.const:xdc_runtime_Memory_defaultHeapInstance__C
*          0    0000144c    00000004
                  0000144c    00000004     app_pem3.oem3 (.const:xdc_runtime_Memory_defaultHeapInstance__C)

.const:xdc_runtime_Startup_execImpl__C
*          0    00001450    00000004
                  00001450    00000004     app_pem3.oem3 (.const:xdc_runtime_Startup_execImpl__C)

.const:xdc_runtime_Startup_maxPasses__C
*          0    00001454    00000004
                  00001454    00000004     app_pem3.oem3 (.const:xdc_runtime_Startup_maxPasses__C)

.const:xdc_runtime_Startup_sfxnRts__C
*          0    00001458    00000004
                  00001458    00000004     app_pem3.oem3 (.const:xdc_runtime_Startup_sfxnRts__C)

.const:xdc_runtime_Startup_sfxnTab__C
*          0    0000145c    00000004
                  0000145c    00000004     app_pem3.oem3 (.const:xdc_runtime_Startup_sfxnTab__C)

.const:xdc_runtime_Startup_startModsFxn__C
*          0    00001460    00000004
                  00001460    00000004     app_pem3.oem3 (.const:xdc_runtime_Startup_startModsFxn__C)

.const:xdc_runtime_SysCallback_abortFxn__C
*          0    00001464    00000004
                  00001464    00000004     app_pem3.oem3 (.const:xdc_runtime_SysCallback_abortFxn__C)

.const:xdc_runtime_SysCallback_exitFxn__C
*          0    00001468    00000004
                  00001468    00000004     app_pem3.oem3 (.const:xdc_runtime_SysCallback_exitFxn__C)

.const:xdc_runtime_System_abortFxn__C
*          0    0000146c    00000004
                  0000146c    00000004     app_pem3.oem3 (.const:xdc_runtime_System_abortFxn__C)

.const:xdc_runtime_System_exitFxn__C
*          0    00001470    00000004
                  00001470    00000004     app_pem3.oem3 (.const:xdc_runtime_System_exitFxn__C)

.const:xdc_runtime_System_maxAtexitHandlers__C
*          0    00001474    00000004
                  00001474    00000004     app_pem3.oem3 (.const:xdc_runtime_System_maxAtexitHandlers__C)

.const:xdc_runtime_Text_charTab__C
*          0    00001478    00000004
                  00001478    00000004     app_pem3.oem3 (.const:xdc_runtime_Text_charTab__C)

.const:xdc_runtime_Text_nameEmpty__C
*          0    0000147c    00000004
                  0000147c    00000004     app_pem3.oem3 (.const:xdc_runtime_Text_nameEmpty__C)

.const:xdc_runtime_Text_nameStatic__C
*          0    00001480    00000004
                  00001480    00000004     app_pem3.oem3 (.const:xdc_runtime_Text_nameStatic__C)

.const:xdc_runtime_Text_nameUnknown__C
*          0    00001484    00000004
                  00001484    00000004     app_pem3.oem3 (.const:xdc_runtime_Text_nameUnknown__C)

.const:xdc_runtime_Main_Module__id__C
*          0    00001488    00000002
                  00001488    00000002     app_pem3.oem3 (.const:xdc_runtime_Main_Module__id__C)

.const:xdc_runtime_Memory_Module__id__C
*          0    0000148a    00000002
                  0000148a    00000002     app_pem3.oem3 (.const:xdc_runtime_Memory_Module__id__C)

.const:xdc_runtime_Text_charCnt__C
*          0    0000148c    00000002
                  0000148c    00000002     app_pem3.oem3 (.const:xdc_runtime_Text_charCnt__C)

.const:xdc_runtime_Text_isLoaded__C
*          0    0000148e    00000002
                  0000148e    00000002     app_pem3.oem3 (.const:xdc_runtime_Text_isLoaded__C)

.const:xdc_runtime_Error_policy__C
*          0    00001490    00000001
                  00001490    00000001     app_pem3.oem3 (.const:xdc_runtime_Error_policy__C)

.const:ti_sysbios_rom_ROM_AONRTCChannelEnable
*          0    00001494    00000004
                  00001494    00000004     app_pem3.oem3 (.const:ti_sysbios_rom_ROM_AONRTCChannelEnable)

.const:ti_sysbios_rom_ROM_AONRTCCompareValueSet
*          0    00001498    00000004
                  00001498    00000004     app_pem3.oem3 (.const:ti_sysbios_rom_ROM_AONRTCCompareValueSet)

.const:ti_sysbios_rom_ROM_AONRTCCurrentCompareValueGet
*          0    0000149c    00000004
                  0000149c    00000004     app_pem3.oem3 (.const:ti_sysbios_rom_ROM_AONRTCCurrentCompareValueGet)

.const:ti_sysbios_rom_ROM_AONRTCEventClear
*          0    000014a0    00000004
                  000014a0    00000004     app_pem3.oem3 (.const:ti_sysbios_rom_ROM_AONRTCEventClear)

.const:ti_sysbios_rom_ROM_ti_sysbios_family_arm_cc26xx_Timer_getCount64__E
*          0    000014a4    00000004
                  000014a4    00000004     app_pem3.oem3 (.const:ti_sysbios_rom_ROM_ti_sysbios_family_arm_cc26xx_Timer_getCount64__E)

.const:ti_sysbios_rom_ROM_ti_sysbios_family_arm_cc26xx_Timer_getCurrentTick__E
*          0    000014a8    00000004
                  000014a8    00000004     app_pem3.oem3 (.const:ti_sysbios_rom_ROM_ti_sysbios_family_arm_cc26xx_Timer_getCurrentTick__E)

.const:ti_sysbios_rom_ROM_ti_sysbios_family_arm_cc26xx_Timer_getMaxTicks__E
*          0    000014ac    00000004
                  000014ac    00000004     app_pem3.oem3 (.const:ti_sysbios_rom_ROM_ti_sysbios_family_arm_cc26xx_Timer_getMaxTicks__E)

.const:ti_sysbios_rom_ROM_ti_sysbios_family_arm_cc26xx_Timer_initDevice__I
*          0    000014b0    00000004
                  000014b0    00000004     app_pem3.oem3 (.const:ti_sysbios_rom_ROM_ti_sysbios_family_arm_cc26xx_Timer_initDevice__I)

.const:ti_sysbios_rom_ROM_ti_sysbios_family_arm_cc26xx_Timer_setNextTick__E
*          0    000014b4    00000004
                  000014b4    00000004     app_pem3.oem3 (.const:ti_sysbios_rom_ROM_ti_sysbios_family_arm_cc26xx_Timer_setNextTick__E)

.const:ti_sysbios_rom_ROM_ti_sysbios_family_arm_cc26xx_Timer_setThreshold__I
*          0    000014b8    00000004
                  000014b8    00000004     app_pem3.oem3 (.const:ti_sysbios_rom_ROM_ti_sysbios_family_arm_cc26xx_Timer_setThreshold__I)

.const:ti_sysbios_rom_ROM_ti_sysbios_family_arm_cc26xx_Timer_start__E
*          0    000014bc    00000004
                  000014bc    00000004     app_pem3.oem3 (.const:ti_sysbios_rom_ROM_ti_sysbios_family_arm_cc26xx_Timer_start__E)

.const:ti_sysbios_rom_ROM_ti_sysbios_family_arm_cc26xx_TimestampProvider_get32__E
*          0    000014c0    00000004
                  000014c0    00000004     app_pem3.oem3 (.const:ti_sysbios_rom_ROM_ti_sysbios_family_arm_cc26xx_TimestampProvider_get32__E)

.const:ti_sysbios_rom_ROM_xdc_runtime_Startup_getState__I
*          0    000014c4    00000004
                  000014c4    00000004     app_pem3.oem3 (.const:ti_sysbios_rom_ROM_xdc_runtime_Startup_getState__I)

.const:ti_sysbios_rom_ROM_xdc_runtime_System_SupportProxy_abort__E
*          0    000014c8    00000004
                  000014c8    00000004     app_pem3.oem3 (.const:ti_sysbios_rom_ROM_xdc_runtime_System_SupportProxy_abort__E)

.const:ti_sysbios_rom_ROM_xdc_runtime_System_SupportProxy_exit__E
*          0    000014cc    00000004
                  000014cc    00000004     app_pem3.oem3 (.const:ti_sysbios_rom_ROM_xdc_runtime_System_SupportProxy_exit__E)

.const:ti_sysbios_gates_GateMutex_Instance_State_sem__O
*          0    000014d0    00000004
                  000014d0    00000004     app_pem3.oem3 (.const:ti_sysbios_gates_GateMutex_Instance_State_sem__O)

.const:ti_sysbios_knl_Clock_Module_State_clockQ__O
*          0    000014d4    00000004
                  000014d4    00000004     app_pem3.oem3 (.const:ti_sysbios_knl_Clock_Module_State_clockQ__O)

.const:ti_sysbios_knl_Mailbox_Instance_State_dataQue__O
*          0    000014d8    00000004
                  000014d8    00000004     app_pem3.oem3 (.const:ti_sysbios_knl_Mailbox_Instance_State_dataQue__O)

.const:ti_sysbios_knl_Mailbox_Instance_State_dataSem__O
*          0    000014dc    00000004
                  000014dc    00000004     app_pem3.oem3 (.const:ti_sysbios_knl_Mailbox_Instance_State_dataSem__O)

.const:ti_sysbios_knl_Mailbox_Instance_State_freeQue__O
*          0    000014e0    00000004
                  000014e0    00000004     app_pem3.oem3 (.const:ti_sysbios_knl_Mailbox_Instance_State_freeQue__O)

.const:ti_sysbios_knl_Mailbox_Instance_State_freeSem__O
*          0    000014e4    00000004
                  000014e4    00000004     app_pem3.oem3 (.const:ti_sysbios_knl_Mailbox_Instance_State_freeSem__O)

.const:ti_sysbios_knl_Semaphore_Instance_State_pendQ__O
*          0    000014e8    00000004
                  000014e8    00000004     app_pem3.oem3 (.const:ti_sysbios_knl_Semaphore_Instance_State_pendQ__O)

.const:ti_sysbios_knl_Task_Module_State_inactiveQ__O
*          0    000014ec    00000004
                  000014ec    00000004     app_pem3.oem3 (.const:ti_sysbios_knl_Task_Module_State_inactiveQ__O)

.ccfg      0    0001ffa8    00000058
                  0001ffa8    00000058     ccfg.obj (.ccfg:retain)

.data:ti_sysbios_knl_Task_Module__state__V
*          0    20000100    00000044     UNINITIALIZED
                  20000100    00000044     app_pem3.oem3 (.data:ti_sysbios_knl_Task_Module__state__V)

.data:ti_sysbios_family_arm_m3_Hwi_Module__state__V
*          0    20000144    00000034     UNINITIALIZED
                  20000144    00000034     app_pem3.oem3 (.data:ti_sysbios_family_arm_m3_Hwi_Module__state__V)

.data:ti_sysbios_knl_Clock_Module__state__V
*          0    20000178    0000002c     UNINITIALIZED
                  20000178    0000002c     app_pem3.oem3 (.data:ti_sysbios_knl_Clock_Module__state__V)

.data:ti_sysbios_BIOS_Module__state__V
*          0    200001a4    00000024     UNINITIALIZED
                  200001a4    00000024     app_pem3.oem3 (.data:ti_sysbios_BIOS_Module__state__V)

.data:ti_sysbios_knl_Swi_Module__state__V
*          0    200001c8    0000001c     UNINITIALIZED
                  200001c8    0000001c     app_pem3.oem3 (.data:ti_sysbios_knl_Swi_Module__state__V)

.data:ti_sysbios_family_arm_cc26xx_Timer_Module__state__V
*          0    200001e4    00000008     UNINITIALIZED
                  200001e4    00000008     app_pem3.oem3 (.data:ti_sysbios_family_arm_cc26xx_Timer_Module__state__V)

.data:ti_sysbios_family_arm_cc26xx_TimestampProvider_Module__state__V
*          0    200001ec    00000004     UNINITIALIZED
                  200001ec    00000004     app_pem3.oem3 (.data:ti_sysbios_family_arm_cc26xx_TimestampProvider_Module__state__V)

.data:xdc_runtime_Startup_Module__state__V
*          0    200001f0    00000008     UNINITIALIZED
                  200001f0    00000008     app_pem3.oem3 (.data:xdc_runtime_Startup_Module__state__V)

.data:xdc_runtime_System_Module__state__V
*          0    200001f8    00000008     UNINITIALIZED
                  200001f8    00000008     app_pem3.oem3 (.data:xdc_runtime_System_Module__state__V)

.data:xdc_runtime_Memory_Module__state__V
*          0    20000200    00000004     UNINITIALIZED
                  20000200    00000004     app_pem3.oem3 (.data:xdc_runtime_Memory_Module__state__V)

.data      0    20000208    00001bde     UNINITIALIZED
                  20000208    000005cc     hmac_global.obj (.data:$O11$$)
                  200007d4    00000484     main.obj (.data:$O27$$)
                  20000c58    00000408     uart_printf.obj (.data:$O30$$)
                  20001060    00000288     fh_global.obj (.data:$O8$$)
                  200012e8    00000114     drivers_cc13x0.aem3 : PINCC26XX.oem3 (.data:$O1$$)
                  200013fc    00000114                         : PowerCC26XX.oem3 (.data:PowerCC26XX_module)
                  20001510    00000104     ssf.obj (.data:$O29$$)
                  20001614    000000d8     mac_settings.obj (.data:$O14$$)
                  200016ec    000000cc     sensor.obj (.data:$O28$$)
                  200017b8    000000ac     jdllc.obj (.data:$O24$$)
                  20001864    00000088     icall.obj (.data:$O1$$)
                  200018ec    00000064     mac_user_config.obj (.data:pOverrides_fsk_CC1350$35)
                  20001950    00000060     maclib_secure.a : mac.obj (.data:$O31$$)
                  200019b0    0000004c     app_pem3.oem3 (.data:ti_sysbios_knl_Task_Object__table__V)
                  200019fc    00000048     board_key.obj (.data:$O6$$)
                  20001a44    00000004     lmac_global.obj (.data:$O13$$)
                  20001a48    00000048     app_pem3.oem3 (.data:ti_sysbios_family_arm_cc26xx_Timer_Object__table__V)
                  20001a90    00000044     board_led.obj (.data:$O7$$)
                  20001ad4    00000038     app_pem3.oem3 (.data:ti_sysbios_gates_GateMutex_Object__table__V)
                  20001b0c    00000034     maclib_secure.a : mac_radio.obj (.data:$O32$$)
                  20001b40    00000030     osal.obj (.data:$O15$$)
                  20001b70    00000030     maclib_secure.a : mac_radio_tx.obj (.data:$O33$$)
                  20001ba0    00000030     app_pem3.oem3 (.data:ti_sysbios_knl_Swi_Module_State_0_readyQ__A)
                  20001bd0    00000030     app_pem3.oem3 (.data:ti_sysbios_knl_Swi_Object__table__V)
                  20001c00    00000030     app_pem3.oem3 (.data:ti_sysbios_knl_Task_Module_State_0_readyQ__A)
                  20001c30    00000024     maclib_secure.a : mac_tx.obj (.data:$O37$$)
                  20001c54    00000020     app_pem3.oem3 (.data:ti_sysbios_knl_Clock_Object__table__V)
                  20001c74    00000020     app_pem3.oem3 (.data:xdc_runtime_Error_IgnoreBlock)
                  20001c94    0000001c     board_gpio.obj (.data:$O5$$)
                  20001cb0    00000018     maclib_secure.a : mac_symbol_timer.obj (.data:$O36$$)
                  20001cc8    00000018     app_pem3.oem3 (.data:ti_sysbios_family_arm_m3_Hwi_Object__table__V)
                  20001ce0    00000018     app_pem3.oem3 (.data:ti_sysbios_heaps_HeapMem_Object__table__V)
                  20001cf8    00000014     api_mac.obj (.data:$O23$$)
                  20001d0c    00000010     mac_cfg.obj (.data:macCfg)
                  20001d1c    0000000d     maclib_secure.a : mac.obj (.data)
                  20001d29    00000002     lmac_global.obj (.data)
                  20001d2b    00000001     drivers_cc13x0.aem3 : UART.oem3 (.data)
                  20001d2c    0000000c     macstack.obj (.data:$O19$$)
                  20001d38    0000000c     CC13X0_LAUNCHXL.obj (.data:RFCC26XX_hwAttrs)
                  20001d44    00000008     osal_clock.obj (.data:$O16$$)
                  20001d4c    00000008     nvocop.obj (.data:$O21$$)
                  20001d54    00000008     icall_cc2650.obj (.data:$O3$$)
                  20001d5c    00000008     rtsv7M3_T_le_eabi.lib : _lock.c.obj (.data:$O38$$)
                  20001d64    00000008     mac_user_config.obj (.data:pOverridesTable)
                  20001d6c    00000008     app_pem3.oem3 (.data:ti_sysbios_family_arm_m3_Hwi_Module__root__V)
                  20001d74    00000008     app_pem3.oem3 (.data:ti_sysbios_gates_GateHwi_Module__root__V)
                  20001d7c    00000008     app_pem3.oem3 (.data:ti_sysbios_gates_GateMutex_Module__root__V)
                  20001d84    00000008     app_pem3.oem3 (.data:ti_sysbios_hal_Hwi_Module__root__V)
                  20001d8c    00000008     app_pem3.oem3 (.data:ti_sysbios_heaps_HeapMem_Module__root__V)
                  20001d94    00000008     app_pem3.oem3 (.data:ti_sysbios_knl_Clock_Module__root__V)
                  20001d9c    00000008     app_pem3.oem3 (.data:ti_sysbios_knl_Mailbox_Module__root__V)
                  20001da4    00000008     app_pem3.oem3 (.data:ti_sysbios_knl_Queue_Module__root__V)
                  20001dac    00000008     app_pem3.oem3 (.data:ti_sysbios_knl_Semaphore_Module__root__V)
                  20001db4    00000008     app_pem3.oem3 (.data:ti_sysbios_knl_Swi_Module__root__V)
                  20001dbc    00000008     app_pem3.oem3 (.data:ti_sysbios_knl_Task_Module__root__V)
                  20001dc4    00000008     app_pem3.oem3 (.data:xdc_runtime_Registry_Module__state__V)
                  20001dcc    00000004     osal_pwrmgr.obj (.data:$O17$$)
                  20001dd0    00000004     hal_appasrt.obj (.data)
                  20001dd4    00000004     rtsv7M3_T_le_eabi.lib : stkdepth_vars.c.obj (.data)
                  20001dd8    00000004     app_pem3.oem3 (.data:ti_sysbios_family_arm_m3_Hwi_Module_State_0_excContext__A)
                  20001ddc    00000004     app_pem3.oem3 (.data:ti_sysbios_family_arm_m3_Hwi_Module_State_0_excStack__A)
                  20001de0    00000004     app_pem3.oem3 (.data:ti_sysbios_knl_Task_Module_State_0_idleTask__A)
                  20001de4    00000002     app_pem3.oem3 (.data:ti_sysbios_family_arm_m3_Hwi_Module_State_0_excActive__A)

.bss       0    20001de8    00001064     UNINITIALIZED
                  20001de8    000006b8     (.common:ti_sysbios_heaps_HeapMem_Instance_State_0_buf__A)
                  200024a0    00000380     rf_multiMode_cc13x0.aem3 : RFCC26XX_multiMode.oem3 (.bss:$O1$$)
                  20002820    00000200     app_pem3.oem3 (.bss:taskStackSection)
                  20002a20    00000128     (.common:uartCC26XXObjects)
                  20002b48    000000c8     maclib_secure.a : mac_radio.obj (.bss:RF_object$78)
                  20002c10    000000c8     (.common:ti_sysbios_family_arm_m3_Hwi_dispatchTable)
                  20002cd8    00000080     (.common:cryptoCC26XXObjects)
                  20002d58    00000028                     : mac_rx.obj (.bss:$O34$$)
                  20002d80    00000028     board_lcd.obj (.bss:lcdBuf$6)
                  20002da8    00000020     (.common:uartCC26XXRingBuffer)
                  20002dc8    0000001c     drivers_cc13x0.aem3 : CryptoCC26XX.oem3 (.bss:CryptoSem)
                  20002de4    00000014     rf_multiMode_cc13x0.aem3 : RFCC26XX_multiMode.oem3 (.bss:RF_ratSyncCmd)
                  20002df8    00000014     driverlib.lib : osc.obj (.bss:oscHfGlobals$53)
                  20002e0c    00000010     maclib_secure.a : mac_radio.obj (.bss:rfPropTableLocal$78)
                  20002e1c    00000008     dpl_cc13x0.aem3 : PowerCC26XX_tirtos.oem3 (.bss:$O1$$)
                  20002e24    00000008     osal_timers.obj (.bss:$O18$$)
                  20002e2c    00000008     driverlib.lib : sys_ctrl.obj (.bss:powerQualGlobals$49)
                  20002e34    00000004     hal_trng_wrapper.obj (.bss)
                  20002e38    00000004     (.common:ClockP_tickPeriod)
                  20002e3c    00000004     (.common:tasksEvents)
                  20002e40    00000002     drivers_cc13x0.aem3 : UARTCC26XX.oem3 (.bss)
                  20002e42    00000001     maclib_secure.a : mac_tx.obj (.bss)
                  20002e43    00000001     rf_multiMode_cc13x0.aem3 : RFCC26XX_multiMode.oem3 (.bss)
                  20002e44    00000001     (.common:driverlib_release_0_51635)
                  20002e45    00000001     (.common:g_hwiInt)
                  20002e46    00000001     (.common:macPwr)
                  20002e47    00000001     (.common:macRxActive)
                  20002e48    00000001     (.common:macRxEnableFlags)
                  20002e49    00000001     (.common:macRxOutgoingAckFlag)
                  20002e4a    00000001     (.common:macSymbolTimerImpending)
                  20002e4b    00000001     (.common:macTxActive)

.vtable    0    20002e4c    00000000     UNINITIALIZED

.vtable_ram
*          0    20002e4c    00000000     UNINITIALIZED

vtable_ram
*          0    20002e4c    00000000     UNINITIALIZED

.sysmem    0    20002e4c    00000000     UNINITIALIZED

.nonretenvar
*          0    20002e4c    00000000     UNINITIALIZED

.stack     0    20004b00    00000500     UNINITIALIZED
                  20004b00    00000500     --HOLE--

.bootVecs
*          0    00000000    00000008     DSECT
                  00000000    00000008     boot.aem3 : boot.oem3 (.bootVecs)

.resetVecs
*          0    00000000    0000003c
                  00000000    0000003c     app_pem3.oem3 (.resetVecs)

.vecs      0    20000000    000000c8     NOLOAD SECTION
                  20000000    000000c8     app_pem3.oem3 (.vecs)

xdc.meta   0    00000000    00000136     COPY SECTION
                  00000000    00000136     app_pem3.oem3 (xdc.meta)

xdc.noload
*          0    00000000    00000000     COPY SECTION

.TI.bound:NV_FLASH
*          0    0001e000    00001000
                  0001e000    00001000     nvocop.obj (.TI.bound:NV_FLASH)

MODULE SUMMARY

       Module                            code    ro data   rw data
       ------                            ----    -------   -------
    ./obj/
       nvocop.obj                        1664    4096      8
       sensor.obj                        2920    0         204
       mac_user_config.obj               220     2742      108
       icall.obj                         2616    204       136
       hmac_global.obj                   0       1336      1484
       jdllc.obj                         2352    170       172
       main.obj                          1350    8         1156
       osal.obj                          1910    0         48
       api_mac.obj                       1646    0         20
       fh_global.obj                     0       698       648
       ssf.obj                           1062    6         260
       icall_startup.obj                 1172    0         0
       uart_printf.obj                   128     0         1032
       macstack.obj                      826     19        12
       icall_cc2650.obj                  468     4         8
       board_led.obj                     334     0         68
       CC13X0_LAUNCHXL.obj               44      198       12
       util.obj                          238     0         0
       mac_settings.obj                  0       0         216
       osal_pwrmgr.obj                   156     0         4
       board_key.obj                     80      0         72
       board_lcd.obj                     91      0         40
       hal_trng_wrapper.obj              120     0         4
       timer.obj                         104     0         0
       saddr.obj                         98      0         0
       hal_flash_wrapper.obj             90      0         0
       ccfg.obj                          0       88        0
       osal_memory_icall.obj             72      0         0
       osal_timers.obj                   40      0         8
       osaltasks.obj                     28      4         0
       board_gpio.obj                    0       0         28
       hal_aes.obj                       24      0         0
       hal_appasrt.obj                   16      0         4
       mac_cfg.obj                       0       0         16
       osal_clock.obj                    0       0         8
       lmac_global.obj                   0       0         6
    +--+---------------------------------+-------+---------+---------+
       Total:                            19869   9573      5782

    /media/homeExt/CC13X0/components/lprf-timac-2-apps/hexfiles/builds/ccsworkspaces_04_09_18/tmpwssen/sensor_cc1350lp/sensor_cc1350lp/configPkg/package/cfg/
       app_pem3.oem3                     672     1503      3462
    +--+---------------------------------+-------+---------+---------+
       Total:                            672     1503      3462

    /media/homeExt/CC13X0/components/lprf-timac-2-apps/hexfiles/builds/ccsworkspaces_04_09_18/tmpwssen/sensor_cc1350lp/sensor_cc1350lp/obj/
       lto_sensor_cc1350lp.obj           0       0         467
    +--+---------------------------------+-------+---------+---------+
       Total:                            0       0         467

    /media/homeExt/CC13X0/components/lprf-timac-2-apps/common/boards/CC13X0_LAUNCHXL/src/sysbios/rom_sysbios.aem3
       rom_sysbios.obj                   2537    0         0
       rom_sysbios_config.obj            38      0         0
    +--+---------------------------------+-------+---------+---------+
       Total:                            2575    0         0

    /media/homeExt/CC13X0/components/lprf-timac-2-apps/library/tirtos/bin/maclib_secure.a
       fh_ie.obj                         5204    0         0
       mac_mgmt.obj                      4770    0         0
       mac.obj                           4082    0         109
       fh_api.obj                        3568    0         0
       mac_radio_tx.obj                  2536    0         48
       mac_data.obj                      2526    0         0
       mac_rx.obj                        2044    8         40
       mac_radio.obj                     1816    0         268
       fh_nt.obj                         1914    0         0
       mac_device.obj                    1878    0         0
       mac_beacon_device.obj             1798    0         0
       mac_tx.obj                        1592    0         37
       mac_scan.obj                      1540    0         0
       macwrapper.obj                    1348    0         0
       mac_security.obj                  1216    0         0
       mac_security_pib.obj              1114    0         0
       fh_mgr.obj                        862     0         0
       mac_main.obj                      736     0         0
       mac_pwr.obj                       726     0         0
       mac_symbol_timer.obj              634     0         24
       fh_data.obj                       624     0         0
       mac_ie_build.obj                  588     0         0
       mac_pib.obj                       584     0         0
       fh_pib.obj                        572     0         0
       mac_timer.obj                     522     0         0
       mac_beacon.obj                    476     0         0
       fh_util.obj                       436     0         0
       mac_mcu.obj                       428     0         0
       mac_hl_patch.obj                  404     0         0
       mac_rx_onoff.obj                  392     0         0
       fh_dh1cf.obj                      382     0         0
       mac_coord.obj                     224     0         0
       fh_sm.obj                         132     0         0
       mac_ie_parse.obj                  84      0         0
       mac_low_level.obj                 26      0         0
    +--+---------------------------------+-------+---------+---------+
       Total:                            47778   8         526

    /opt/ti/cc13xx_cc26xx_coresdk/cc13xx_cc26xx_coresdk_3_50_02_00/kernel/tirtos/packages/ti/targets/arm/rtsarm/lib/auto_init.aem3
       auto_init.oem3                    160     0         0
    +--+---------------------------------+-------+---------+---------+
       Total:                            160     0         0

    /opt/ti/cc13xx_cc26xx_coresdk/cc13xx_cc26xx_coresdk_3_50_02_00/kernel/tirtos/packages/ti/targets/arm/rtsarm/lib/boot.aem3
       boot.oem3                         68      0         0
    +--+---------------------------------+-------+---------+---------+
       Total:                            68      0         0

    /opt/ti/ccs8.0.0.00016/ccsv8/tools/compiler/ti-cgt-arm_18.1.1.LTS/lib/rtsv7M3_T_le_eabi.lib
       memcpy_t2.asm.obj                 156     0         0
       ull_div_t2.asm.obj                150     0         0
       memset_t2.asm.obj                 122     0         0
       ll_div_t2.asm.obj                 110     0         0
       copy_decompress_lzss.c.obj        104     0         0
       cpy_tbl.c.obj                     76      0         0
       u_divt2.asm.obj                   64      0         0
       memcmp.c.obj                      36      0         0
       _lock.c.obj                       26      0         8
       args_main.c.obj                   24      0         0
       ll_mul_t2.asm.obj                 24      0         0
       strlen.c.obj                      20      0         0
       copy_decompress_none.c.obj        14      0         0
       copy_zero_init.c.obj              12      0         0
       stkdepth_vars.c.obj               0       0         4
       div0.asm.obj                      2       0         0
    +--+---------------------------------+-------+---------+---------+
       Total:                            940     0         12

    /opt/ti/ccs8.0.0.00016/latest/kernel/tirtos/packages/ti/dpl/lib/dpl_cc13x0.aem3
       PowerCC26XX_tirtos.oem3           296     0         8
       ClockP_tirtos.oem3                118     0         4
       HwiP_tirtos.oem3                  102     0         0
       SwiP_tirtos.oem3                  96      0         0
       SemaphoreP_tirtos.oem3            70      0         0
    +--+---------------------------------+-------+---------+---------+
       Total:                            682     0         12

    /opt/ti/ccs8.0.0.00016/latest/source/ti/devices/cc13x0/driverlib/bin/ccs/driverlib.lib
       crypto.obj                        1608    0         0
       setup.obj                         1412    0         0
       sys_ctrl.obj                      780     0         8
       rfc.obj                           684     24        0
       osc.obj                           524     0         20
       chipinfo.obj                      164     0         0
       setup_rom.obj                     148     0         0
       flash.obj                         56      0         0
       ddi.obj                           52      0         0
       aon_rtc.obj                       44      0         0
       adi.obj                           40      0         0
       aon_batmon.obj                    40      0         0
       cpu.obj                           30      0         0
       vims.obj                          14      0         0
    +--+---------------------------------+-------+---------+---------+
       Total:                            5596    24        28

    /opt/ti/ccs8.0.0.00016/latest/source/ti/drivers/lib/drivers_cc13x0.aem3
       UARTCC26XX.oem3                   2656    108       2
       PowerCC26XX.oem3                  2120    76        276
       PINCC26XX.oem3                    1322    0         276
       PowerCC26XX_calibrateRCOSC.oem3   1380    0         0
       CryptoCC26XX.oem3                 1150    0         29
       UART.oem3                         162     36        1
       List.oem3                         192     0         0
       RingBuf.oem3                      148     0         0
    +--+---------------------------------+-------+---------+---------+
       Total:                            9130    220       584

    /opt/ti/ccs8.0.0.00016/latest/source/ti/drivers/rf/lib/rf_multiMode_cc13x0.aem3
       RFCC26XX_multiMode.oem3           8996    28        917
    +--+---------------------------------+-------+---------+---------+
       Total:                            8996    28        917

       Stack:                            0       0         1280
       Linker Generated:                 528     1210      0
    +--+---------------------------------+-------+---------+---------+
       Grand Total:                      96994   12566     13070


LINKER GENERATED COPY TABLES

__TI_cinit_table @ 00019420 records: 12, size/record: 8, table size: 96
	.data: load addr=00018fc0, load size=00000388 bytes, run addr=20000208, run size=00001bde bytes, compression=lzss
	.data:ti_sysbios_family_arm_m3_Hwi_Module__state__V: load addr=00019348, load size=00000028 bytes, run addr=20000144, run size=00000034 bytes, compression=lzss
	.data:ti_sysbios_knl_Task_Module__state__V: load addr=00019370, load size=00000021 bytes, run addr=20000100, run size=00000044 bytes, compression=lzss
	.data:ti_sysbios_BIOS_Module__state__V: load addr=00019391, load size=0000001f bytes, run addr=200001a4, run size=00000024 bytes, compression=lzss
	.data:ti_sysbios_knl_Clock_Module__state__V: load addr=000193b0, load size=0000001e bytes, run addr=20000178, run size=0000002c bytes, compression=lzss
	.data:ti_sysbios_knl_Swi_Module__state__V: load addr=000193ce, load size=00000010 bytes, run addr=200001c8, run size=0000001c bytes, compression=lzss
	.data:ti_sysbios_family_arm_cc26xx_Timer_Module__state__V: load addr=000193ec, load size=0000000b bytes, run addr=200001e4, run size=00000008 bytes, compression=lzss
	.bss: load addr=000193f8, load size=00000008 bytes, run addr=20001de8, run size=00001064 bytes, compression=zero_init
	.data:xdc_runtime_Memory_Module__state__V: load addr=00019400, load size=00000008 bytes, run addr=20000200, run size=00000004 bytes, compression=lzss
	.data:ti_sysbios_family_arm_cc26xx_TimestampProvider_Module__state__V: load addr=00019408, load size=00000007 bytes, run addr=200001ec, run size=00000004 bytes, compression=lzss
	.data:xdc_runtime_Startup_Module__state__V: load addr=0001940f, load size=00000007 bytes, run addr=200001f0, run size=00000008 bytes, compression=lzss
	.data:xdc_runtime_System_Module__state__V: load addr=00019416, load size=00000007 bytes, run addr=200001f8, run size=00000008 bytes, compression=lzss


LINKER GENERATED HANDLER TABLE

__TI_handler_table @ 000193e0 records: 3, size/record: 4, table size: 12
	index: 0, handler: __TI_decompress_lzss
	index: 1, handler: __TI_decompress_none
	index: 2, handler: __TI_zero_init


FAR CALL TRAMPOLINES

callee name               trampoline name
   callee addr  tramp addr   call addr  call info
--------------  -----------  ---------  ----------------
ti_sysbios_knl_Task_self__E  $Tramp$TT$L$PI$$ti_sysbios_knl_Task_self__E
   1001c1e1     0001f108     0001f00a   icall.obj (.text:ICall_primWaitMatch$0)
                             0001f3f4   icall.obj (.text:ICall_primEnroll$0)
                             0001f458   icall.obj (.text:ICall_primRegisterApp$0)
                             0001f4c8   icall.obj (.text:ICall_primThreadServes$0)
                             0001f514   icall.obj (.text:ICall_primFetchMsg$0)
                             0001f568   icall.obj (.text:ICall_primWait$0)
                             0001f5bc   icall.obj (.text:ICall_primGetEntityId$0)
ti_sysbios_knl_Clock_getTicks__E  $Tramp$TT$L$PI$$ti_sysbios_knl_Clock_getTicks__E
   1001b6d5     0001f110     0001f054   icall.obj (.text:ICall_primWaitMatch$0)
                             0001f0c2   icall.obj (.text:ICall_primWaitMatch$0)
                             0001fa6a   icall.obj (.text:ICall_primGetTicks$0)
ti_sysbios_knl_Semaphore_pend__E  $Tramp$TT$L$PI$$ti_sysbios_knl_Semaphore_pend__E
   1001a001     0001f118     0001f06c   icall.obj (.text:ICall_primWaitMatch$0)
                             0001f5a8   icall.obj (.text:ICall_primWait$0)
ti_sysbios_knl_Semaphore_post__E  $Tramp$TT$L$PI$$ti_sysbios_knl_Semaphore_post__E
   1001ac41     0001f120     0001f0f6   icall.obj (.text:ICall_primWaitMatch$0)
                             0001f34e   icall.obj (.text:ICall_primSend$0)
                             0001fab8   icall.obj (.text:ICall_primSignal$0)
ti_sysbios_knl_Clock_Params__init__S  $Tramp$TT$L$PI$$ti_sysbios_knl_Clock_Params__init__S
   1001c181     0001f1c0     0001f14a   icall.obj (.text:ICall_primSetTimer$0)
ti_sysbios_knl_Clock_create  $Tramp$TT$L$PI$$ti_sysbios_knl_Clock_create
   1001b3e9     0001f1c8     0001f15e   icall.obj (.text:ICall_primSetTimer$0)
ti_sysbios_knl_Clock_setTimeout__E  $Tramp$TT$L$PI$$ti_sysbios_knl_Clock_setTimeout__E
   1001c2bd     0001f1d0     0001f1a8   icall.obj (.text:ICall_primSetTimer$0)
ti_sysbios_knl_Clock_start__E  $Tramp$TT$L$PI$$ti_sysbios_knl_Clock_start__E
   1001bfdf     0001f1d8     0001f1ae   icall.obj (.text:ICall_primSetTimer$0)
ti_sysbios_knl_Task_disable__E  $Tramp$TT$L$PI$$ti_sysbios_knl_Task_disable__E
   1001c0f1     0001f3d0     0001f36a   icall.obj (.text:ICall_createRemoteTasks)
                             0001f984   icall.obj (.text:ICall_enterCSImpl)
                             0001fa2e   icall.obj (.text:ICall_primDisableMInt$0)
ti_sysbios_knl_Task_Params__init__S  $Tramp$TT$L$PI$$ti_sysbios_knl_Task_Params__init__S
   1001c1d5     0001f3d8     0001f378   icall.obj (.text:ICall_createRemoteTasks)
                             0001f664   icall.obj (.text:ICall_primCreateTask$0)
ti_sysbios_knl_Task_create  $Tramp$TT$L$PI$$ti_sysbios_knl_Task_create
   1001ae19     0001f3e0     0001f396   icall.obj (.text:ICall_createRemoteTasks)
                             0001f67a   icall.obj (.text:ICall_primCreateTask$0)
ti_sysbios_knl_Task_restore__E  $Tramp$TT$L$PI$$ti_sysbios_knl_Task_restore__E
   1001ba45     0001f3e8     0001f3bc   icall.obj (.text:ICall_createRemoteTasks)
                             0001f9e6   icall.obj (.text:ICall_leaveCSImpl)
ti_sysbios_knl_Semaphore_create  $Tramp$TT$L$PI$$ti_sysbios_knl_Semaphore_create
   1001b5a9     0001f648     0001f622   icall.obj (.text:ICall_newTask$0)
ti_sysbios_hal_Hwi_create  $Tramp$TT$L$PI$$ti_sysbios_hal_Hwi_create
   1001ab79     0001f704     0001f6ec   icall.obj (.text:ICall_primRegisterISR$0)
                             0001f72c   icall.obj (.text:ICall_primRegisterISR_Ext$0)
ti_sysbios_family_arm_m3_Hwi_disableFxn__E  $Tramp$TT$L$PI$$ti_sysbios_family_arm_m3_Hwi_disableFxn__E
   1001c145     0001f99c     0001f98e   icall.obj (.text:ICall_enterCSImpl)
                             0001fa32   icall.obj (.text:ICall_primDisableMInt$0)
ti_sysbios_family_arm_m3_Hwi_restoreFxn__E  $Tramp$TT$L$PI$$ti_sysbios_family_arm_m3_Hwi_restoreFxn__E
   1001c215     0001f9ec     0001f9de   icall.obj (.text:ICall_leaveCSImpl)
ti_sysbios_family_arm_m3_Hwi_enableFxn__E  $Tramp$TT$L$PI$$ti_sysbios_family_arm_m3_Hwi_enableFxn__E
   1001c151     0001fa48     0001fa3c   icall.obj (.text:ICall_primEnableMInt$0)
ti_sysbios_knl_Task_enable__E  $Tramp$TT$L$PI$$ti_sysbios_knl_Task_enable__E
   1001c23f     0001fa50     0001fa40   icall.obj (.text:ICall_primEnableMInt$0)
ti_sysbios_hal_Hwi_disableInterrupt__E  $Tramp$TT$L$PI$$ti_sysbios_hal_Hwi_disableInterrupt__E
   1001c27d     0001fa8c     0001fa84   icall.obj (.text:ICall_primDisableInt$0)
ti_sysbios_hal_Hwi_enableInterrupt__E  $Tramp$TT$L$PI$$ti_sysbios_hal_Hwi_enableInterrupt__E
   1001c281     0001faa0     0001fa98   icall.obj (.text:ICall_primEnableInt$0)
ti_sysbios_knl_Swi_destruct  $Tramp$TT$L$PI$$ti_sysbios_knl_Swi_destruct
   1001c2e5     00018398     0001834a   dpl_cc13x0.aem3 : SwiP_tirtos.oem3 (.text:SwiP_destruct)
ti_sysbios_knl_Semaphore_destruct  $Tramp$TT$L$PI$$ti_sysbios_knl_Semaphore_destruct
   1001c2dd     000183a0     00018342   dpl_cc13x0.aem3 : SemaphoreP_tirtos.oem3 (.text:SemaphoreP_destruct)
ti_sysbios_family_arm_m3_Hwi_setPriority__E  $Tramp$TT$L$PI$$ti_sysbios_family_arm_m3_Hwi_setPriority__E
   1001be81     000183a8     0001833a   dpl_cc13x0.aem3 : HwiP_tirtos.oem3 (.text:HwiP_setPriority)
ti_sysbios_family_arm_m3_Hwi_enableInterrupt__E  $Tramp$TT$L$PI$$ti_sysbios_family_arm_m3_Hwi_enableInterrupt__E
   1001b295     000183b0     0001832e   dpl_cc13x0.aem3 : HwiP_tirtos.oem3 (.text:HwiP_enableInterrupt)
ti_sysbios_family_arm_m3_Hwi_disableFxn__E  $Tramp$TT$L$PI$$ti_sysbios_family_arm_m3_Hwi_disableFxn__E
   1001c145     000183b8     0001832a   dpl_cc13x0.aem3 : HwiP_tirtos.oem3 (.text:HwiP_disable)
ti_sysbios_family_arm_m3_Hwi_destruct  $Tramp$TT$L$PI$$ti_sysbios_family_arm_m3_Hwi_destruct
   1001c25d     000183c0     00018326   dpl_cc13x0.aem3 : HwiP_tirtos.oem3 (.text:HwiP_destruct)
ti_sysbios_BIOS_getCpuFreq__E  $Tramp$TT$L$PI$$ti_sysbios_BIOS_getCpuFreq__E
   1001bff5     000183c8     00018306   dpl_cc13x0.aem3 : ClockP_tirtos.oem3 (.text:ClockP_getCpuFreq)
ti_sysbios_knl_Clock_destruct  $Tramp$TT$L$PI$$ti_sysbios_knl_Clock_destruct
   1001c2b5     000183d0     00018302   dpl_cc13x0.aem3 : ClockP_tirtos.oem3 (.text:ClockP_destruct)
xdc_runtime_Core_assignParams__I  $Tramp$TT$L$PI$$xdc_runtime_Core_assignParams__I
   1001c5ed     000183d8     00018184   rom_sysbios.aem3 : rom_sysbios_config.obj (.text:ti_sysbios_hal_Hwi_Params__init__S)
xdc_runtime_Startup_startMods__I  $Tramp$TT$L$PI$$xdc_runtime_Startup_startMods__I
   1001c309     000183e0     00017e4a   app_pem3.oem3 (.text:xdc_runtime_Startup_exec__I)
ti_sysbios_knl_Semaphore_pend__E  $Tramp$TT$L$PI$$ti_sysbios_knl_Semaphore_pend__E
   1001a001     000183e8     00017dfa   dpl_cc13x0.aem3 : SemaphoreP_tirtos.oem3 (.text:SemaphoreP_pend)
ti_sysbios_knl_Clock_logTick__E  $Tramp$TT$L$PI$$ti_sysbios_knl_Clock_logTick__E
   1001be63     000183f0     00017d8a   app_pem3.oem3 (.text:ti_sysbios_knl_Clock_doTick__I)
ti_sysbios_knl_Swi_post__E  $Tramp$TT$L$PI$$ti_sysbios_knl_Swi_post__E
   1001b31d     000183f8     00017b08   rom_sysbios.aem3 : rom_sysbios.obj (.text:ti_sysbios_knl_Swi_or__E)
                             00017d92   app_pem3.oem3 (.text:ti_sysbios_knl_Clock_doTick__I)
ti_sysbios_BIOS_RtsGateProxy_leave__E  $Tramp$TT$L$PI$$ti_sysbios_BIOS_RtsGateProxy_leave__E
   1001c249     00018400     00017aea   app_pem3.oem3 (.text:ti_sysbios_BIOS_rtsUnlock__I)
ti_sysbios_knl_Swi_construct  $Tramp$TT$L$PI$$ti_sysbios_knl_Swi_construct
   1001b085     00018408     000176e6   rom_sysbios.aem3 : rom_sysbios.obj (.text:ti_sysbios_knl_Swi_construct2__E)
ti_sysbios_BIOS_RtsGateProxy_enter__E  $Tramp$TT$L$PI$$ti_sysbios_BIOS_RtsGateProxy_enter__E
   1001c245     00018410     000172be   app_pem3.oem3 (.text:ti_sysbios_BIOS_rtsLock__I)
ti_sysbios_knl_Task_restore__E  $Tramp$TT$L$PI$$ti_sysbios_knl_Task_restore__E
   1001ba45     00018418     0001712a   dpl_cc13x0.aem3 : PowerCC26XX_tirtos.oem3 (.text:PowerCC26XX_schedulerRestore)
ti_sysbios_knl_Semaphore_construct  $Tramp$TT$L$PI$$ti_sysbios_knl_Semaphore_construct
   1001b705     00018420     0001666e   dpl_cc13x0.aem3 : SemaphoreP_tirtos.oem3 (.text:SemaphoreP_constructBinary)
ti_sysbios_knl_Semaphore_Params__init__S  $Tramp$TT$L$PI$$ti_sysbios_knl_Semaphore_Params__init__S
   1001c1bd     00018428     0001665e   dpl_cc13x0.aem3 : SemaphoreP_tirtos.oem3 (.text:SemaphoreP_constructBinary)
ti_sysbios_knl_Task_startup__E  $Tramp$TT$L$PI$$ti_sysbios_knl_Task_startup__E
   1001c305     00018430     00016480   app_pem3.oem3 (.text:ti_sysbios_BIOS_startFunc__I)
ti_sysbios_knl_Swi_startup__E  $Tramp$TT$L$PI$$ti_sysbios_knl_Swi_startup__E
   1001c239     00018438     0001647c   app_pem3.oem3 (.text:ti_sysbios_BIOS_startFunc__I)
ti_sysbios_hal_Hwi_startup__E  $Tramp$TT$L$PI$$ti_sysbios_hal_Hwi_startup__E
   1001c289     00018440     00016478   app_pem3.oem3 (.text:ti_sysbios_BIOS_startFunc__I)
ti_sysbios_family_arm_cc26xx_Timer_startup__E  $Tramp$TT$L$PI$$ti_sysbios_family_arm_cc26xx_Timer_startup__E
   1001b791     00018448     00016474   app_pem3.oem3 (.text:ti_sysbios_BIOS_startFunc__I)
xdc_runtime_System_atexit__E  $Tramp$TT$L$PI$$xdc_runtime_System_atexit__E
   1001c67d     00018450     0001646c   app_pem3.oem3 (.text:ti_sysbios_BIOS_startFunc__I)
ti_sysbios_BIOS_setThreadType__E  $Tramp$TT$L$PI$$ti_sysbios_BIOS_setThreadType__E
   1001c041     00018458     00016438   app_pem3.oem3 (.text:ti_sysbios_BIOS_atExitFunc__I)
                             00017b86   app_pem3.oem3 (.text:ti_sysbios_BIOS_exitFunc__I)
ti_sysbios_knl_Task_disable__E  $Tramp$TT$L$PI$$ti_sysbios_knl_Task_disable__E
   1001c0f1     00018460     00016432   app_pem3.oem3 (.text:ti_sysbios_BIOS_atExitFunc__I)
                             000170fa   dpl_cc13x0.aem3 : PowerCC26XX_tirtos.oem3 (.text:PowerCC26XX_schedulerDisable)
ti_sysbios_knl_Swi_disable__E  $Tramp$TT$L$PI$$ti_sysbios_knl_Swi_disable__E
   1001c0d1     00018468     0001642e   app_pem3.oem3 (.text:ti_sysbios_BIOS_atExitFunc__I)
                             0001834e   dpl_cc13x0.aem3 : SwiP_tirtos.oem3 (.text:SwiP_disable)
ti_sysbios_knl_Queue_Object__get__S  $Tramp$TT$L$PI$$ti_sysbios_knl_Queue_Object__get__S
   1001bd65     00018470     00015f92   rom_sysbios.aem3 : rom_sysbios.obj (.text:ti_sysbios_knl_Swi_setPri__E)
ti_sysbios_family_arm_m3_Hwi_construct  $Tramp$TT$L$PI$$ti_sysbios_family_arm_m3_Hwi_construct
   1001af29     00018478     000156a2   rom_sysbios.aem3 : rom_sysbios.obj (.text:ti_sysbios_family_arm_m3_Hwi_construct2__E)
ti_sysbios_knl_Swi_Params__init__S  $Tramp$TT$L$PI$$ti_sysbios_knl_Swi_Params__init__S
   1001c1c9     00018480     000154fe   dpl_cc13x0.aem3 : SwiP_tirtos.oem3 (.text:SwiP_construct)
ti_sysbios_family_arm_m3_Hwi_Params__init__S  $Tramp$TT$L$PI$$ti_sysbios_family_arm_m3_Hwi_Params__init__S
   1001c139     00018488     00015268   dpl_cc13x0.aem3 : HwiP_tirtos.oem3 (.text:HwiP_construct)
xdc_runtime_System_exit__E  $Tramp$TT$L$PI$$xdc_runtime_System_exit__E
   1001c7cd     00018490     00014b0c   boot.aem3 : boot.oem3 (.text)
                             00017b8c   app_pem3.oem3 (.text:ti_sysbios_BIOS_exitFunc__I)
ti_sysbios_knl_Clock_construct  $Tramp$TT$L$PI$$ti_sysbios_knl_Clock_construct
   1001b575     00018498     0001472c   dpl_cc13x0.aem3 : ClockP_tirtos.oem3 (.text:ClockP_construct)
                             0001485a   timer.obj (.text:Timer_construct)
ti_sysbios_knl_Clock_Params__init__S  $Tramp$TT$L$PI$$ti_sysbios_knl_Clock_Params__init__S
   1001c181     000184a0     0001471c   dpl_cc13x0.aem3 : ClockP_tirtos.oem3 (.text:ClockP_construct)
                             00014834   timer.obj (.text:Timer_construct)
ti_sysbios_knl_Clock_getTicks__E  $Tramp$TT$L$PI$$ti_sysbios_knl_Clock_getTicks__E
   1001b6d5     000184a8     00011c8a   jdllc.obj (.text:syncLossCb$34)
                             00012dc8   jdllc.obj (.text:updateState$34)
                             0001511c   jdllc.obj (.text:handleMaxDataFail$34)
                             00016818   rom_sysbios.aem3 : rom_sysbios.obj (.text:ti_sysbios_knl_Clock_getTimeout__E)
ti_sysbios_knl_Clock_scheduleNextTick__E  $Tramp$TT$L$PI$$ti_sysbios_knl_Clock_scheduleNextTick__E
   1001beb9     000184b0     000109ae   rom_sysbios.aem3 : rom_sysbios.obj (.text:ti_sysbios_knl_Clock_workFuncDynamic__E)
ti_sysbios_knl_Clock_walkQueueDynamic__E  $Tramp$TT$L$PI$$ti_sysbios_knl_Clock_walkQueueDynamic__E
   1001a809     000184b8     00010976   rom_sysbios.aem3 : rom_sysbios.obj (.text:ti_sysbios_knl_Clock_workFuncDynamic__E)
                             00010992                    : rom_sysbios.obj (.text:ti_sysbios_knl_Clock_workFuncDynamic__E)
ti_sysbios_knl_Clock_TimerProxy_getCurrentTick__E  $Tramp$TT$L$PI$$ti_sysbios_knl_Clock_TimerProxy_getCurrentTick__E
   1001c091     000184c0     00010944   rom_sysbios.aem3 : rom_sysbios.obj (.text:ti_sysbios_knl_Clock_workFuncDynamic__E)
                             000167be                    : rom_sysbios.obj (.text:ti_sysbios_knl_Clock_getTicksUntilInterrupt__E)
ti_sysbios_BIOS_start__E  $Tramp$TT$L$PI$$ti_sysbios_BIOS_start__E
   1001c051     000184c8     0000fc36   main.obj (.text:main)
ti_sysbios_knl_Task_construct  $Tramp$TT$L$PI$$ti_sysbios_knl_Task_construct
   1001b125     000184d0     0000fc32   main.obj (.text:main)
ti_sysbios_knl_Task_Params__init__S  $Tramp$TT$L$PI$$ti_sysbios_knl_Task_Params__init__S
   1001c1d5     000184d8     0000fc18   main.obj (.text:main)
ti_sysbios_knl_Clock_start__E  $Tramp$TT$L$PI$$ti_sysbios_knl_Clock_start__E
   1001bfdf     000184e0     0000d528   dpl_cc13x0.aem3 : PowerCC26XX_tirtos.oem3 (.text:PowerCC26XX_standbyPolicy)
                             0001730a   rom_sysbios.aem3 : rom_sysbios.obj (.text:ti_sysbios_knl_Clock_stop__E)
                             00018312   dpl_cc13x0.aem3 : ClockP_tirtos.oem3 (.text:ClockP_start)
                             0001835e   timer.obj (.text:Timer_start)
ti_sysbios_knl_Clock_setTimeout__E  $Tramp$TT$L$PI$$ti_sysbios_knl_Clock_setTimeout__E
   1001c2bd     000184e8     0000d522   dpl_cc13x0.aem3 : PowerCC26XX_tirtos.oem3 (.text:PowerCC26XX_standbyPolicy)
                             00018234   timer.obj (.text:Timer_setTimeout)
                             0001830e   dpl_cc13x0.aem3 : ClockP_tirtos.oem3 (.text:ClockP_setTimeout)
ti_sysbios_knl_Swi_restore__E  $Tramp$TT$L$PI$$ti_sysbios_knl_Swi_restore__E
   1001b5dd     000184f0     0000782c   drivers_cc13x0.aem3 : PowerCC26XX.oem3 (.text:Power_sleep)
                             0000ce9c   rf_multiMode_cc13x0.aem3 : RFCC26XX_multiMode.oem3 (.text:RF_pendCmd)
                             0000ced0                            : RFCC26XX_multiMode.oem3 (.text:RF_pendCmd)
                             0000cf28                            : RFCC26XX_multiMode.oem3 (.text:RF_pendCmd)
                             0000cf3c                            : RFCC26XX_multiMode.oem3 (.text:RF_pendCmd)
ti_sysbios_family_arm_m3_Hwi_restoreFxn__E  $Tramp$TT$L$PI$$ti_sysbios_family_arm_m3_Hwi_restoreFxn__E
   1001c215     000184f8     00004722   rf_multiMode_cc13x0.aem3 : RFCC26XX_multiMode.oem3 (.text:RF_fsmActiveState)
                             0000477e                            : RFCC26XX_multiMode.oem3 (.text:RF_fsmActiveState)
                             000047d6                            : RFCC26XX_multiMode.oem3 (.text:RF_fsmActiveState)
                             000047fc                            : RFCC26XX_multiMode.oem3 (.text:RF_fsmActiveState)
                             00007d5a   drivers_cc13x0.aem3 : CryptoCC26XX.oem3 (.text:cryptoTransactionExecute)
                             00007da4                       : CryptoCC26XX.oem3 (.text:cryptoTransactionExecute)
                             00007e08                       : CryptoCC26XX.oem3 (.text:cryptoTransactionExecute)
                             00007e70                       : CryptoCC26XX.oem3 (.text:cryptoTransactionExecute)
                             000082fe   rf_multiMode_cc13x0.aem3 : RFCC26XX_multiMode.oem3 (.text:RF_open)
                             000083de                            : RFCC26XX_multiMode.oem3 (.text:RF_open)
                             000090de                            : RFCC26XX_multiMode.oem3 (.text:RF_scheduleCmd)
                             0000a7fa   drivers_cc13x0.aem3 : UARTCC26XX.oem3 (.text:UARTCC26XX_open)
                             0000a806                       : UARTCC26XX.oem3 (.text:UARTCC26XX_open)
                             0000a886                       : UARTCC26XX.oem3 (.text:UARTCC26XX_open)
                             0000ade6   rf_multiMode_cc13x0.aem3 : RFCC26XX_multiMode.oem3 (.text:RF_radioOpDoneCb)
                             0000b0cc                            : RFCC26XX_multiMode.oem3 (.text:RF_ratSetupChannel)
                             0000bb98   drivers_cc13x0.aem3 : UARTCC26XX.oem3 (.text:UARTCC26XX_read)
                             0000bbd8                       : UARTCC26XX.oem3 (.text:UARTCC26XX_read)
                             0000bbf4                       : UARTCC26XX.oem3 (.text:UARTCC26XX_read)
                             0000bc42                       : UARTCC26XX.oem3 (.text:UARTCC26XX_read)
                             0000c354   rf_multiMode_cc13x0.aem3 : RFCC26XX_multiMode.oem3 (.text:RF_close)
                             0000c3b6                            : RFCC26XX_multiMode.oem3 (.text:RF_close)
                             0000c50e   drivers_cc13x0.aem3 : UARTCC26XX.oem3 (.text:UARTCC26XX_write)
                             0000c52a                       : UARTCC26XX.oem3 (.text:UARTCC26XX_write)
                             0000c5c6                       : UARTCC26XX.oem3 (.text:UARTCC26XX_write)
                             0000c8a6   rf_multiMode_cc13x0.aem3 : RFCC26XX_multiMode.oem3 (.text:RF_abortCmd)
                             0000c9a2                            : RFCC26XX_multiMode.oem3 (.text:RF_getInfo)
                             0000d80a                            : RFCC26XX_multiMode.oem3 (.text:RF_requestAccess)
                             0000d830                            : RFCC26XX_multiMode.oem3 (.text:RF_requestAccess)
                             0000dac8   drivers_cc13x0.aem3 : PINCC26XX.oem3 (.text:PINCC26XX_setIoCfg)
                             0000dc16                       : CryptoCC26XX.oem3 (.text:CryptoCC26XX_open)
                             0000dc24                       : CryptoCC26XX.oem3 (.text:CryptoCC26XX_open)
                             0000e510   rf_multiMode_cc13x0.aem3 : RFCC26XX_multiMode.oem3 (.text:RF_swiHw)
                             0000eea6   drivers_cc13x0.aem3 : PowerCC26XX.oem3 (.text:Power_releaseDependency)
                             0000f3b4                       : PowerCC26XX.oem3 (.text:Power_setDependency)
                             0000f470   rf_multiMode_cc13x0.aem3 : RFCC26XX_multiMode.oem3 (.text:RF_control)
                             0000fd86   drivers_cc13x0.aem3 : PowerCC26XX.oem3 (.text:switchXOSCHFclockFunc)
                             0001079a                       : UARTCC26XX.oem3 (.text:UARTCC26XX_swiIntFxn)
                             000107ca                       : UARTCC26XX.oem3 (.text:UARTCC26XX_swiIntFxn)
                             00010c92   board_led.obj (.text:board_led_blinkTimeoutCB$7)
                             00011122   drivers_cc13x0.aem3 : UARTCC26XX.oem3 (.text:UARTCC26XX_close)
                             00011492                       : UARTCC26XX.oem3 (.text:UARTCC26XX_writeCancel)
                             0001149e                       : UARTCC26XX.oem3 (.text:UARTCC26XX_writeCancel)
                             000114e4                       : UARTCC26XX.oem3 (.text:UARTCC26XX_writeCancel)
                             00011670   rf_multiMode_cc13x0.aem3 : RFCC26XX_multiMode.oem3 (.text:RF_issueRadioFreeCb)
                             00011688                            : RFCC26XX_multiMode.oem3 (.text:RF_issueRadioFreeCb)
                             000119dc   board_led.obj (.text:Board_Led_control)
                             00011afe   rf_multiMode_cc13x0.aem3 : RFCC26XX_multiMode.oem3 (.text:RF_ratFreeChannel)
                             00012254                            : RFCC26XX_multiMode.oem3 (.text:RF_yield)
                             00012288                            : RFCC26XX_multiMode.oem3 (.text:RF_yield)
                             0001271e   drivers_cc13x0.aem3 : PowerCC26XX_calibrateRCOSC.oem3 (.text:PowerCC26XX_initiateCalibration)
                             000127c0   rf_multiMode_cc13x0.aem3 : RFCC26XX_multiMode.oem3 (.text:RF_ratDisableChannel)
                             00012aea   drivers_cc13x0.aem3 : UARTCC26XX.oem3 (.text:UARTCC26XX_readCancel)
                             00012af4                       : UARTCC26XX.oem3 (.text:UARTCC26XX_readCancel)
                             00012b0a                       : UARTCC26XX.oem3 (.text:UARTCC26XX_readCancel)
                             0001334c   rf_multiMode_cc13x0.aem3 : RFCC26XX_multiMode.oem3 (.text:RF_dispatchNextEvent)
                             00013370                            : RFCC26XX_multiMode.oem3 (.text:RF_getCurrentTime)
                             000133a6                            : RFCC26XX_multiMode.oem3 (.text:RF_getCurrentTime)
                             00013464   drivers_cc13x0.aem3 : UARTCC26XX.oem3 (.text:UARTCC26XX_control)
                             00013d28                       : CryptoCC26XX.oem3 (.text:CryptoCC26XX_close)
                             000147c6                       : PINCC26XX.oem3 (.text:PIN_setOutputEnable)
                             00014aae                       : RingBuf.oem3 (.text:RingBuf_put)
                             00014ad8                       : RingBuf.oem3 (.text:RingBuf_put)
                             000150ba                       : UART.oem3 (.text:UART_init)
                             000152b6                       : RingBuf.oem3 (.text:RingBuf_get)
                             000152be                       : RingBuf.oem3 (.text:RingBuf_get)
                             00015494                       : PowerCC26XX.oem3 (.text:PowerCC26XX_isStableXOSC_HF)
                             00015c8a                       : PowerCC26XX.oem3 (.text:Power_releaseConstraint)
                             00015cbe   rf_multiMode_cc13x0.aem3 : RFCC26XX_multiMode.oem3 (.text:RF_powerConstraintRelease)
                             00015cf4                            : RFCC26XX_multiMode.oem3 (.text:RF_queueEnd)
                             00015d28                            : RFCC26XX_multiMode.oem3 (.text:RF_runDirectImmediateCmd)
                             00016240   drivers_cc13x0.aem3 : PowerCC26XX.oem3 (.text:Power_setConstraint)
                             00016878                       : CryptoCC26XX.oem3 (.text:CryptoCC26XX_releaseKey)
                             00016c96                       : List.oem3 (.text:List_remove)
                             00016e8a                       : List.oem3 (.text:List_get)
                             00016eae                       : List.oem3 (.text:List_insert)
                             00016ed0                       : List.oem3 (.text:List_put)
                             00016ef2                       : List.oem3 (.text:List_putHead)
                             0001714c                       : PowerCC26XX.oem3 (.text:Power_unregisterNotify)
                             00017514   rf_multiMode_cc13x0.aem3 : RFCC26XX_multiMode.oem3 (.text:RF_powerConstraintSet)
                             00017b4a   util.obj (.text:Util_clearEvent)
                             00017b76   util.obj (.text:Util_setEvent)
                             00017bde   drivers_cc13x0.aem3 : List.oem3 (.text:List_clearList)
ti_sysbios_knl_Semaphore_post__E  $Tramp$TT$L$PI$$ti_sysbios_knl_Semaphore_post__E
   1001ac41     00018500     000043c2   sensor.obj (.text:Sensor_process)
                             000043f4   sensor.obj (.text:Sensor_process)
                             000172a8   ssf.obj (.text:processScanBackoffTimeoutCallback$38)
                             0001767e   ssf.obj (.text:processPollTimeoutCallback$38)
                             0001769a   ssf.obj (.text:processReadingTimeoutCallback$38)
                             00017abc   ssf.obj (.text:processKeyChangeCallback$38)
                             00018346   dpl_cc13x0.aem3 : SemaphoreP_tirtos.oem3 (.text:SemaphoreP_post)

[66 trampolines]
[193 trampoline calls]


GLOBAL SYMBOLS: SORTED ALPHABETICALLY BY Name

address   name
-------   ----
00000c00  ADCBuf_count
00000c01  ADC_count
20001cf8  ApiMac_appEntity
20001d04  ApiMac_extAddr
00017e55  ApiMac_mlmeGetReqArray
00017e65  ApiMac_mlmeGetReqUint16
00017e75  ApiMac_mlmeGetReqUint32
00017e85  ApiMac_mlmeSetReqArray
00017765  ApiMac_mlmeSetReqBool
0001777d  ApiMac_mlmeSetReqUint16
00017795  ApiMac_mlmeSetReqUint8
00017e95  ApiMac_mlmeSetSecurityReqStruct
00017b95  ApiMac_randomByte
20001d2c  AppTaskId
000009a0  BoardGpioInitTable
00017d9d  Board_Lcd_writeString
000146b9  Board_Lcd_writeStringValue
00011999  Board_Led_control
00018269  ClockP_Params_init
00014701  ClockP_construct
00018303  ClockP_destruct
00018307  ClockP_getCpuFreq
1001b6d5  ClockP_getSystemTicks
0001830b  ClockP_getTimeout
00017ea5  ClockP_isActive
0001830f  ClockP_setTimeout
00018313  ClockP_start
00018317  ClockP_stop
20002e38  ClockP_tickPeriod
00018201  CryptoCC26XX_Params_init
0001831b  CryptoCC26XX_Transac_init
000112dd  CryptoCC26XX_allocateKey
00013d07  CryptoCC26XX_close
00000c1c  CryptoCC26XX_config
00016be9  CryptoCC26XX_hwiIntFxn
00018085  CryptoCC26XX_init
0000dbcd  CryptoCC26XX_open
00016859  CryptoCC26XX_releaseKey
0001826f  CryptoCC26XX_transact
00018275  CryptoCC26XX_transactCallback
0001827b  CryptoCC26XX_transactPolling
20000244  Crypto_handle
00000c02  Display_count
0001606d  FHAPI_SFDRxCb
00006f8d  FHAPI_completeRxCb
0000a689  FHAPI_completeTxCb
000177ad  FHAPI_getBitCount
00014a15  FHAPI_getRemDT
00016c0d  FHAPI_getTxChHoppingFunc
0000d309  FHAPI_getTxParams
00005ad9  FHAPI_getTxParams_old
00010205  FHAPI_reset
000080cd  FHAPI_sendData
000173cf  FHAPI_setStateCb
0000684d  FHAPI_start
0001237d  FHAPI_startBS
00015739  FHAPI_stopAsync
00018281  FHDATA_asyncMinTxOffTimerCb
000103d9  FHDATA_getPktFromQueue
0000e981  FHDATA_procASYNCReq
00018287  FHDATA_procEDFEReq
00012981  FHDATA_purgePktFromQueue
000138e9  FHDATA_requeuePkt
0001828d  FHDATA_startEDFEReq
00004f0f  FHDATA_startEDFETimer
00016ef9  FHDATA_updateCCA
000123ed  FHDH1CF_getBCChannelNum
00014989  FHDH1CF_getCh
000156c5  FHDH1CF_getChannelNum
00014dcd  FHDH1CF_hashword
000143bd  FHDH1CF_mapChIdxChannel
200010c0  FHFSM_Dbg
20001104  FHIE_channelPlan
00011367  FHIE_extractHie
00008679  FHIE_extractPie
00005d9d  FHIE_gen
0000c5d9  FHIE_genCommonInformation
00013fa9  FHIE_genExcludedChannelMask
0000f731  FHIE_genExcludedChannelRanges
0000605d  FHIE_genPieContent
000131e1  FHIE_getCcaSfdTime
0000fda5  FHIE_getChannelPlan
000149cf  FHIE_getCommonInformationLen
00016545  FHIE_getExcludedChannelControl
00015fa5  FHIE_getHie
0000ebcd  FHIE_getLen
00015b29  FHIE_getPie
0000f039  FHIE_getPieContentLen
00013ffb  FHIE_getSubPie
000092a5  FHIE_parseCommonInformation
0000d221  FHIE_parseHie
00002df9  FHIE_parsePie
00018293  FHMGR_BCTimerEventUpd
0000cb99  FHMGR_bcTimerIsrCb
00016881  FHMGR_macCancelFHTimer
00018015  FHMGR_macGetElapsedFHTime
0001404d  FHMGR_macStartFHTimer
00018299  FHMGR_pendBcChUpdate
0001829f  FHMGR_pendUcChUpdate
0001409d  FHMGR_ucTimerIsrCb
000152c9  FHMGR_updateHopping
00010471  FHMGR_updateRadioBCChannel
00013661  FHMGR_updateRadioUCChannel
0000ec8d  FHNT_AddDeviceCB
20001064  FHNT_Dbg
00013941  FHNT_DelDeviceCB
0000d3ed  FHNT_addTempEUI
00017db1  FHNT_assessTime
00014e0d  FHNT_delTempIndex
000140ed  FHNT_getEUI
000095ed  FHNT_getEntry
00010af9  FHNT_getNTIndexFromTempIndex
0000c1dd  FHNT_getRemoveEntryFromTemp
20001088  FHNT_hnd
0000b5ad  FHNT_purgeTimerIsrCb
0001268d  FHNT_putEntry
20001158  FHNT_tableOpt
20001074  FHNT_tempTable
2000125c  FHPIB_db
000004a0  FHPIB_defaults
0001440d  FHPIB_get
000173eb  FHPIB_getIndex
00016c31  FHPIB_getLen
00017ba9  FHPIB_reset
00009451  FHPIB_set
00013d5d  FHSM_event
0001831f  FHUTIL_assert
00018323  FHUTIL_elapsedTime
00013999  FHUTIL_getBitCounts
00012139  FHUTIL_getCurBfio
00014e4d  FHUTIL_getCurUfsi
00017dc3  FHUTIL_getElapsedTime
00016b51  FHUTIL_getMaxChannels
00016b77  FHUTIL_getTxUfsi
00007aaf  FHUTIL_noAction
00016f19  FHUTIL_updateUcNumChannels
2000107c  FH_FSM
0000052c  FH_PibTbl
200011d4  FH_hnd
00000658  FH_stateMatrix
2000106c  FH_txTiming
0001609d  FSM_transaction_debug
00017eb5  HAL_APPASRT_callAssrtHanlder
20001884  HEAPMGR_SIZE
000177c5  HalAesInit
00016f39  HalFlashGetAddress
000160cd  HalFlashRead
000181b1  HalFlashWrite
00014e8d  HalTRNG_GetTRNG
00015771  HalTRNG_InitTRNG
00017ec5  HwiP_Params_init
0001524d  HwiP_construct
00018327  HwiP_destruct
0001832b  HwiP_disable
0001832f  HwiP_enableInterrupt
00018333  HwiP_post
1001c215  HwiP_restore
00018337  HwiP_setFunc
0001833b  HwiP_setPriority
00000c03  I2C_count
00015305  ICallPlatform_pwrConfigACAction
000177dd  ICallPlatform_pwrDispense
00018023  ICallPlatform_pwrGetTransitionState
00017ed5  ICallPlatform_pwrGetXOSCStartupTime
00018031  ICallPlatform_pwrIsStableXOSCHF
000160fd  ICallPlatform_pwrRegisterNotify
000177f5  ICallPlatform_pwrRequire
000181bb  ICallPlatform_pwrSwitchXOSCHF
000121ad  ICallPlatform_pwrUpdActivityCounter
0001f365  ICall_createRemoteTasks
20001888  ICall_dispatcher
0001f983  ICall_enterCSImpl
20001868  ICall_enterCriticalSection
0001f875  ICall_heapFree
0001f275  ICall_heapMalloc
0001f9d7  ICall_leaveCSImpl
2000186c  ICall_leaveCriticalSection
0001f7b1  ICall_searchServiceEntity
000136c1  Jdllc_addSecDevice
200017c2  Jdllc_events
0000ea45  Jdllc_init
00000825  Jdllc_keySource
00011021  Jdllc_securityInit
00014749  Jdllc_sendDisassociationRequest
00017bbd  Jdllc_setPollRate
200017e4  Jdllc_statistics
00017bd1  List_clearList
00016e71  List_get
00016e93  List_insert
00016eb5  List_put
00016ed7  List_putHead
00016c79  List_remove
0000dff1  MAC_CbackEvent
00017be5  MAC_CbackQueryRetransmit
000170b9  MAC_GetPHYParamReq
000065cd  MAC_McpsDataReq
000181c5  MAC_MlmeAssociateReq
000181cf  MAC_MlmeDisassociateReq
000168d1  MAC_MlmeGetPointerSecurityReq
00014a59  MAC_MlmeGetReq
00008a0d  MAC_MlmeGetSecurityReq
00018209  MAC_MlmePollReq
00004839  MAC_MlmeResetReq
0000ed49  MAC_MlmeScanReq
00009c41  MAC_MlmeSetReq
00006d2d  MAC_MlmeSetSecurityReq
00018211  MAC_MlmeSyncReq
000181f7  MAC_RandomByte
000139f1  MAC_ResumeReq
000157e1  Main_assertHandler
000182a5  Main_excHandler
20000878  Main_user1Cfg
000168f9  NOROM_AONBatMonTemperatureGetDegC
00017bf9  NOROM_AONRTCCurrent64BitValueGet
0001780d  NOROM_AONRTCCurrentCompareValueGet
00018091  NOROM_CPUcpsid
0001809d  NOROM_CPUcpsie
000182ab  NOROM_CPUdelay
0000e331  NOROM_CRYPTOAesCbc
0001612d  NOROM_CRYPTOAesCbcStatus
0000f885  NOROM_CRYPTOAesEcb
0001612d  NOROM_CRYPTOAesEcbStatus
00010b8d  NOROM_CRYPTOAesLoadKey
0000a3b5  NOROM_CRYPTOCcmAuthEncrypt
0001413d  NOROM_CRYPTOCcmAuthEncryptResultGet
0001615d  NOROM_CRYPTOCcmAuthEncryptStatus
0000a0c9  NOROM_CRYPTOCcmInvAuthDecrypt
00011a15  NOROM_CRYPTOCcmInvAuthDecryptResultGet
0001618d  NOROM_CRYPTOCcmInvAuthDecryptStatus
00017441  NOROM_ChipInfo_GetChipFamily
000161bd  NOROM_ChipInfo_GetChipType
00014f8d  NOROM_ChipInfo_GetHwRevision
00017825  NOROM_ChipInfo_GetPackageType
00015bc9  NOROM_DDI32RegWrite
0001745d  NOROM_FlashProgram
00017479  NOROM_FlashSectorErase
00016571  NOROM_OSCClockSourceGet
00013241  NOROM_OSCClockSourceSet
00012df9  NOROM_OSCHF_AttemptToSwitchToXosc
000113f1  NOROM_OSCHF_GetStartupTime
00015bfd  NOROM_OSCHF_SwitchToRcOscTurnOffXosc
0001783d  NOROM_OSCHF_TurnOnXosc
000153b9  NOROM_OSC_HPOSCRelativeFrequencyOffsetGet
000180a9  NOROM_OSC_HPOSCRelativeFrequencyOffsetToRFCoreFormatConvert
000170d9  NOROM_RFCAdi3VcoLdoVoltageMode
00017855  NOROM_RFCCpeIntGetAndClear
0001659d  NOROM_RFCCpePatchReset
00016921  NOROM_RFCDoorbellSendTo
00017ee5  NOROM_RFCHwIntGetAndClear
0000cc89  NOROM_RFCOverrideUpdate
0000dca1  NOROM_RFCRfTrimRead
00017ef5  NOROM_RFCRfTrimSet
000153f5  NOROM_RFCSynthPowerDown
00012e5d  NOROM_SetupGetTrimForAnabypassValue1
000161ed  NOROM_SetupSetAonRtcSubSecInc
0000cd79  NOROM_SetupTrimDevice
000129e9  NOROM_SysCtrlAdjustRechargeAfterPowerDown
0000742d  NOROM_SysCtrlSetRechargeBeforePowerDown
00012a51  NOROM_SysCtrl_DCDC_VoltageConditionalControl
0001803f  NOROM_VIMSModeGet
00015431  NVOCOP_compactNV
00010509  NVOCOP_deleteItem
00014fcd  NVOCOP_initNV
00015819  NVOCOP_readItem
0000e3fd  NVOCOP_writeItem
00000c04  NVS_count
0001e000  NV_FLASH
20001d48  OSAL_timeSeconds
00017f05  PINCC26XX_getPinCount
00000c24  PINCC26XX_hwAttrs
000165c9  PINCC26XX_setMux
00017339  PIN_close
00017c0d  PIN_getInputValue
00008d89  PIN_init
000105a1  PIN_open
000180b5  PIN_registerIntCb
00013a49  PIN_remove
00015c31  PIN_setConfig
00014791  PIN_setOutputEnable
00015851  PIN_setOutputValue
00000c05  PWM_count
0001371d  PowerCC26XX_RCOSC_clockFunc
00004f11  PowerCC26XX_auxISR
000132a1  PowerCC26XX_calibrate
00000b80  PowerCC26XX_config
00009ab1  PowerCC26XX_doCalibrate
000113f1  PowerCC26XX_getXoscStartupTime
000126f9  PowerCC26XX_initiateCalibration
0001546d  PowerCC26XX_isStableXOSC_HF
200013fc  PowerCC26XX_module
000170f9  PowerCC26XX_schedulerDisable
00017119  PowerCC26XX_schedulerRestore
0000d4d1  PowerCC26XX_standbyPolicy
20002e20  PowerCC26XX_swiKey
0001833f  PowerCC26XX_switchXOSC_HF
20002e1c  PowerCC26XX_taskKey
000180c1  Power_getConstraintMask
000180cd  Power_getDependencyCount
00017357  Power_getTransitionLatency
000180d9  Power_getTransitionState
0001786d  Power_idleFunc
0000beb1  Power_init
00016949  Power_registerNotify
00015c65  Power_releaseConstraint
0000ee05  Power_releaseDependency
0001621d  Power_setConstraint
0000f319  Power_setDependency
00007669  Power_sleep
00017139  Power_unregisterNotify
20001d38  RFCC26XX_hwAttrs
00017c21  RF_Params_init
00017c35  RF_RatConfigCompare_init
00018219  RF_RatConfigOutput_init
00018221  RF_ScheduleCmdParams_init
00013aa1  RF_TxPowerTable_findValue
0000c7c9  RF_cancelCmd
0000c2dd  RF_close
20001624  RF_cmdFs
20001614  RF_cmdNop
2000163c  RF_cmdPropCs
20001658  RF_cmdPropCsSlotted
20001694  RF_cmdPropRadioDivSetup
200016bc  RF_cmdPropRxAdv
20001674  RF_cmdPropTxAdv
0000f3cd  RF_control
00018229  RF_flushCmd
00017dd5  RF_getCmdOp
00013361  RF_getCurrentTime
0000c8bd  RF_getInfo
000174e9  RF_getRssi
00016971  RF_getTxPower
20001b14  RF_handle
000082bd  RF_open
20001b24  RF_params
0000ce69  RF_pendCmd
000180e5  RF_powerConstraintGet
00015c99  RF_powerConstraintRelease
00017505  RF_powerConstraintSet
00017c5d  RF_ratCompare
00012765  RF_ratDisableChannel
0000d779  RF_requestAccess
000182b7  RF_runDirectCmd
000182bd  RF_runImmediateCmd
00008f41  RF_scheduleCmd
0001504d  RF_setTxPower
00012221  RF_yield
00014ae1  ResetISR
00017de7  RingBuf_construct
0001528b  RingBuf_get
00014a9d  RingBuf_put
00000c06  SD_count
UNDEFED   SHT$$INIT_ARRAY$$Base
UNDEFED   SHT$$INIT_ARRAY$$Limit
00000c07  SPI_count
00016999  SafeHapiVoid
0001664d  SemaphoreP_constructBinary
00018343  SemaphoreP_destruct
00017df9  SemaphoreP_pend
00018347  SemaphoreP_post
200016ee  Sensor_events
20001740  Sensor_msgStats
00004141  Sensor_process
0000b34d  Sensor_sendMsg
00016679  Ssf_clearNetworkInfo
000147d9  Ssf_configurationUpdate
000182c3  Ssf_displayError
0000fe45  Ssf_findBlackListIndex
000133c1  Ssf_getNetworkInfo
00017521  Ssf_initializeReadingClock
0000c0d5  Ssf_networkUpdate
20001514  Ssf_resetCount
20001510  Ssf_resetReseason
0001624d  Ssf_setPollClock
0001627d  Ssf_setReadingClock
000162ad  Ssf_setScanBackoffClock
0001753d  Ssf_stateChangeUpdate
00017f35  SwiP_Params_init
000154e5  SwiP_construct
0001834b  SwiP_destruct
0001834f  SwiP_disable
00018353  SwiP_getTrigger
00018357  SwiP_or
1001b5dd  SwiP_restore
0001835b  SwiP_setPriority
00014821  Timer_construct
00017f45  Timer_isActive
00018231  Timer_setTimeout
0001835f  Timer_start
00018363  Timer_stop
000110ad  UARTCC26XX_close
00013421  UARTCC26XX_control
00000aac  UARTCC26XX_fxnTable
0000aa99  UARTCC26XX_hwiIntFxn
000178cd  UARTCC26XX_init
0000a7e5  UARTCC26XX_open
0000bb5d  UARTCC26XX_read
00012ab9  UARTCC26XX_readCancel
000182c9  UARTCC26XX_readPolling
00010769  UARTCC26XX_swiIntFxn
0000c4dd  UARTCC26XX_write
00011479  UARTCC26XX_writeCancel
000182cf  UARTCC26XX_writePolling
000178e5  UART_Params_init
00000be8  UART_config
00000c08  UART_count
00000afc  UART_defaultParams
0001508d  UART_init
000150cd  UART_open
000181d9  UART_write
00013db1  UartPrintf_flush
000166a5  UartPrintf_putch
00018239  Util_breakUint32
000180f1  Util_bufferUint16
000156ff  Util_bufferUint32
00017b3b  Util_clearEvent
000181e3  Util_copyExtAddr
00014869  Util_itoa
000180fd  Util_parseUint16
00017b51  Util_parseUint32
00017b67  Util_setEvent
00000c09  Watchdog_count
00000000  __ASM__
000000b0  __ISA__
000000c2  __PLAT__
20005000  __STACK_END
00000500  __STACK_SIZE
20005000  __STACK_TOP
000000e9  __TARG__
00019420  __TI_CINIT_Base
00019480  __TI_CINIT_Limit
000193e0  __TI_Handler_Table_Base
000193ec  __TI_Handler_Table_Limit
0000fee5  __TI_auto_init
00012b21  __TI_decompress_lzss
0001804d  __TI_decompress_none
ffffffff  __TI_pprof_out_hndl
ffffffff  __TI_prof_data_size
ffffffff  __TI_prof_data_start
00018fc0  __TI_static_base__
0001812d  __TI_zero_init
0000010e  __TRDR__
000131df  __aeabi_idiv0
000131df  __aeabi_ldiv0
000125ad  __aeabi_ldivmod
00017ac5  __aeabi_lmul
00011cfd  __aeabi_memclr
00011cfd  __aeabi_memclr4
00011cfd  __aeabi_memclr8
0001033d  __aeabi_memcpy
0001033d  __aeabi_memcpy4
0001033d  __aeabi_memcpy8
00011cff  __aeabi_memset
00011cff  __aeabi_memset4
00011cff  __aeabi_memset8
0001518d  __aeabi_uidiv
0001518d  __aeabi_uidivmod
00010a61  __aeabi_uldivmod
ffffffff  __binit__
ffffffff  __c_args__
0001ffa8  __ccfg
20004b00  __stack
000178fd  _args_main
00014ae1  _c_int00
20001d5c  _lock
0000f7db  _nop
00018109  _register_lock
00018115  _register_unlock
20001d60  _unlock
20001d29  bInSwi
ffffffff  binit
000176fd  copyApiMacAddrToMacAddr
00014459  copy_in
00000bd8  cryptoCC26XXHWAttrs
20002cd8  cryptoCC26XXObjects
00018f7c  cryptoDriverTable
20000248  cryptoDrvTblPtr
2000020b  csmPhy
20002e44  driverlib_release_0_51635
200006d8  enhancedAckBuf
20000544  fhObject
00000498  fhSupFrameTypes
20001956  fsCmdHandle
20002e45  g_hwiInt
20000c5c  hUart
000182d5  halAssertHandler
20004b00  heapEnd
20002e4c  heapStart
0001f1e1  icall_directAPI
0001466d  icall_slimMsgParser
200017b8  initBroadcastMsg
2000195c  lastPostCmd
20001d1c  lastRatChanA
20001d1d  lastRatChanB
00018f79  loDivider
20001c40  macAckDbg
20001b80  macAckTimer
2000036c  macActionSet
20001060  macAddrSize
0000b91d  macAllocTxBuffer
00007ecd  macApiAssociateReq
000182db  macApiBadState
000090f5  macApiDataReq
0000abe1  macApiDisassociateReq
00016a11  macApiPending
00013e05  macApiPollReq
00010af7  macApiPwrOnReq
00008845  macApiScanReq
0000ba3d  macApiSyncReq
0000b7f9  macApiWSAsyncReq
00014bad  macAssocDataReq
0001427d  macAssocDataReqComplete
00012f89  macAssocDataRxInd
00015931  macAssocFailed
00016ce5  macAssocFrameResponseTimeout
00017f55  macAssocRxDisassoc
00015d69  macAssociateCnf
000001cc  macAssociatingSt
00000040  macAuthTagLen
0000b219  macAutoPoll
0001630d  macBcTimerHandler
2000034c  macBeacon
00016a39  macBeaconCheckSched
00011d79  macBeaconCheckTxTime
20000410  macBeaconDevice
20000260  macBeaconDeviceAction
2000032c  macBeaconMargin
20000444  macBeaconPayload
00015969  macBeaconRequeue
00016d09  macBeaconReset
0000d859  macBeaconSetSched
000148b1  macBeaconStartFrameResponseTimer
00015d9d  macBeaconStopTrack
0000fb15  macBeaconSyncLoss
000182e1  macBroadcastPendCallback
0000f1a9  macBuildBeaconNotifyInd
00007ab1  macBuildCommonReq
00003a2d  macBuildHeader
0000e729  macBuildHeaderIes
00009dc9  macBuildPayloadIes
0001317d  macBuildWSAsyncMsg
0000005d  macCbackEventTbl
00010cb5  macCbackForEvent
00010d49  macCcmDecrypt
000111c5  macCcmEncrypt
00010ddd  macCcmStarInverseTransform
0000e7f1  macCcmStarTransform
20001d0c  macCfg
00017717  macCheckPhyMode
0001555d  macCheckPhyRate
00011d77  macClientSwitchCb
00000069  macCmdBufSize
000000ac  macCmdIncludeFHIe
00000048  macCmdLen
0000daf5  macCommStatusInd
00017575  macConflictSyncLossInd
200003b8  macCoord
2000024c  macCoordAction1
200002f4  macCoordAction2
20000270  macCoordAction3
00016a61  macCoordAddrCmp
20001c3c  macCsmaRtcTimerId
00018249  macCsmaTimerExpiry
20000280  macData
2000022c  macDataBeaconRequeue
20000224  macDataCheckSched
20000228  macDataCheckTxTime
20000214  macDataRequeueIndirect
20000218  macDataRxBeaconCritical
00015dd1  macDataRxInd
000171b9  macDataRxMemAlloc
00018139  macDataRxMemFree
000171d9  macDataSend
20000220  macDataSetSched
2000021c  macDataTxBeaconComplete
00011251  macDataTxComplete
20000290  macDataTxDelay
0000e8b9  macDataTxEnqueue
20000210  macDataTxIndirect
0000e0c1  macDataTxSend
0001795d  macDataTxTimeAvailable
200003e4  macDevice
20000478  macDeviceAction1
200002a0  macDeviceAction2
0000d049  macDeviceReset
0001283d  macDisassocComplete
000128a9  macExecute
00013cb1  macFrameDuration
00013cb1  macFrameDurationSubG
2000199c  macFrmFilter
20001d20  macFsCmdActive
00016a89  macGetCoordAddress
00017975  macGetMyAddrMode
00016d2d  macGetRadioState
000144f1  macGetRadioTxPowerReg
000182e7  macHalAssertHandler
000008a8  macIdleSt
0000788d  macIncomingFrameSecurityMaterialRetrieval
0000d939  macIndirectSend
00018145  macIsCsmOperational
000120c1  macKeyDescriptorLookup
0000003c  macKeySourceLen
00017731  macLowLevelDiags
000130b5  macLowLevelReset
20000638  macMRFSKGenPhyTable
0001633d  macMRFSKGetPhyDesc
00000124  macMRFSKStdPhyTable
20000254  macMain
00017cc1  macMainReserve
00011501  macMcuBitReverse
00012137  macMcuInit
00017cd5  macMcuOverflowCapture
00012295  macMcuOverflowSetCompare
00012309  macMcuOverflowSetPeriod
000181f7  macMcuRandomByte
00017591  macMcuTimerCapture
20000209  macMgmt
20000390  macMgmtAction1
200002c8  macMgmtAction2
0001261b  macNoAction
0000e595  macOutgoingFrameKeyDescRetrieval
0001836b  macPanConflictComplete
2000020a  macPanCoordinator
20001a47  macPhyChannel
20001b18  macPhyTxPower
200005b0  macPib
00000318  macPibDefaults
00017375  macPibIndex
000166fd  macPibReset
000003a0  macPibTbl
0001798d  macPollCnf
00014bf1  macPollDataReqComplete
00013831  macPollDataRxInd
0001514d  macPollFrameResponseTimeout
000179a5  macPollRxAssocRsp
000175ad  macPollRxDisassoc
0000023a  macPollingSt
20001cb4  macPrevPeriodRatCount
20002e46  macPwr
00005805  macPwrVote
20001b78  macRadioAckFrame
0001836f  macRadioComputeLQI
0000a941  macRadioCsmaTxCb
00003db9  macRadioInit
00003db9  macRadioInitSubG
0000de49  macRadioLbtTxCb
00017f65  macRadioPowerCtrlFEM
000181f7  macRadioRandomByte
000142cd  macRadioSetChannel
000179bd  macRadioSetIEEEAddr
00016729  macRadioSetPanCoordinator
00017ce9  macRadioSetPanID
000175c9  macRadioSetRE
000179d5  macRadioSetShortAddr
00017e0b  macRadioSetTxPower
00016ab1  macRadioStopScan
000171f9  macRadioSwInit
00013481  macRadioTxBackoffBoundary
00018151  macRadioTxCancelAckTimeout
0001815d  macRadioTxCancelTxAck
00005529  macRadioTxGo
0000cf59  macRadioTxPrepCsmaSlottedSubG
0000c9b1  macRadioTxPrepCsmaUnslotted
0000c9b1  macRadioTxPrepCsmaUnslottedSubG
000102a1  macRadioTxPrepLbt
00016d51  macRadioTxRequestTxAck
00011e69  macRadioUpdateChannel
00011b0d  macRadioUpdateChannelRx
00011799  macRadioUpdateTxPower
0001453d  macRadioWakeupCb
20001d2a  macRadioYielded
0000df1d  macRatCb_A
0000c3dd  macRatCb_B
20001d24  macReqAccErrCnt
20001d22  macReqAccessCnt
20001950  macReqAccessTimeCnt
20000310  macReset
000175e5  macRxAckTxDoneCallback
20002e47  macRxActive
00011695  macRxAssocRsp
00010801  macRxBeacon
00008bcd  macRxBeaconCritical
20001d1e  macRxCmdActive
00012fed  macRxCoordRealign
20002d64  macRxDataEntryOffset
20002d78  macRxDataEntryQueue
00015599  macRxDisable
00013051  macRxDisassoc
00017f75  macRxEnable
20002e48  macRxEnableFlags
20002d58  macRxFilter
000134e1  macRxHaltCleanup
00014589  macRxNokIsr
00017219  macRxOff
00013ba9  macRxOffRequest
00012c59  macRxOn
000179ed  macRxOnRequest
20002e49  macRxOutgoingAckFlag
20001990  macRxOutputSubG
00016d75  macRxSoftDisable
00017239  macRxSoftEnable
200004f0  macScan
200002dc  macScanAction
00016009  macScanCnfInit
00013541  macScanComplete
00017393  macScanFailedInProgress
0000d135  macScanNextChan
0000e191  macScanRxBeacon
00010899  macScanRxCoordRealign
00011b89  macScanStartTimer
00000916  macScanningSt
000182ed  macSecCpy
200004b0  macSecurityPib
00017e1d  macSecurityPibIndex
00000174  macSecurityPibTbl
0000e261  macSendDataMsg
0000eb09  macSendFsCmd
00012915  macSendMsg
00000094  macSendMsgBufSize
00000051  macSendMsgDataSize
0000b47d  macSendReceiveCmdSubG
0000caa5  macSetDefaultsByPhyID
00017f95  macSetEvent
00017f85  macSetEvent16
000159a1  macSetUserConfig
000148f9  macSetupFsCmd
0000bfc5  macSetupRATChanCompare
00014c35  macSetupReceiveCmd
20001960  macSfdDetectCback
20001cb0  macSpecUsecsPerSymbol
000084a5  macStackEventLoop
00015e05  macStartBroadcastPendTimer
000155d5  macStartFrameResponseTimer
00017a05  macStartResponseTimer
000002a8  macStartingSt
00017a1d  macStateIdleOrPolling
00017cfd  macStateScanning
200002b4  macStateTbl
00014c79  macStopCmd
000159d9  macSymbolTimerCount
20002e4a  macSymbolTimerImpending
000130b5  macSymbolTimerInit
00015a11  macSymbolTimerRealignSubG
000130b5  macSymbolTimerReset
00017a35  macSymbolTimerRestore
20001cb8  macSymbolTimerRollover
0001431d  macSymbolTimerSetRollover
00015611  macSymbolTimerSetTrigger
0001761d  macSymbolTimerSetTriggerRollover
20001cbc  macSymbolTimerTrigger
00013e59  macSyncTimeoutCallback
20000208  macTaskId
00017639  macTimer
20000240  macTimerActive
00013c01  macTimerAddTimer
00016d99  macTimerAligned
00011819  macTimerCancel
000159d9  macTimerGetTime
00017a4d  macTimerInit
2000023c  macTimerNewRollover
00015e39  macTimerRecalcUnaligned
000173b1  macTimerRemoveTimer
20000238  macTimerRollover
000000e4  macTimerRolloverValue
0001639d  macTimerSetRollover
00013c59  macTimerUpdateSymbolTimer
00011c05  macTrackPeriodCallback
00013ead  macTrackStartCallback
00011ee1  macTrackTimeoutCallback
00017a65  macTxAbortIsr
000175e5  macTxAckIsr
00014621  macTxAckNotReceivedCallback
000124cd  macTxAckReceivedCallback
20002e4b  macTxActive
20001c32  macTxBe
0000f52d  macTxChannelBusyCallback
20001d1f  macTxCmdActive
00009f4d  macTxCompleteCallback
20001c38  macTxCsmaBackoffDelay
0000a525  macTxCsmaDelay
00015e6d  macTxDecrypt
0000991d  macTxFrame
00000085  macTxFrameFailed
0000eec1  macTxFrameIsr
00000077  macTxFrameSuccess
00016ad9  macTxRequestCsmaRtcDelay
20001a44  macTxSlottedDelay
20001c30  macTxSlottedDelayFactor
20001968  macTxTimestamp
20001c31  macTxType
00015ea1  macTxUpdateIE
20001a45  macUnitBackoffPeriod
00013f01  macUpdatePayloadIEPtr
00017d11  macWSAsyncCnf
00017a7d  macWrapper8ByteUnused
00003699  macWrapperAddDevice
00009785  macWrapperAddKeyInitFCtr
00014cbd  mac_msg_deallocate
0000fbb9  main
20001dd4  main_func_sp
00016dbd  memcmp
0001033d  memcpy
00011d05  memset
00000bb0  msacbackSizeTable
20000828  myTask
200008d4  myTaskStack
20001d26  numRfCmd
20001d27  numRxCmd
20001d28  numRxPostCmd
000163cd  osal_alien2proxy
20001b41  osal_entity
20001b4c  osal_eventloop_hook
20001b50  osal_icallMsg_hook
20001b58  osal_last_timestamp
20001b60  osal_max_msecs
00016b01  osal_mem_alloc
00016f59  osal_mem_free
00017259  osal_memcmp
00017a95  osal_memcpy
0001837b  osal_memset
00016de1  osal_msg_allocate
00017e2f  osal_msg_deallocate
00015a49  osal_msg_dequeue
00015f09  osal_msg_enqueue
0001564d  osal_msg_extract
00017279  osal_msg_push
00011589  osal_msg_receive
000135a1  osal_msg_send
00016b29  osal_next_timeout
00011f59  osal_pwrmgr_task_state
20001b48  osal_qHead
00018169  osal_self
20001b54  osal_semaphore
0000fc5d  osal_set_event
00006315  osal_start_system
0001837f  osal_strlen
20001b5c  osal_tickperiod
20001d34  pMacCbackCheckPending
20001d30  pMacCbackQueryRetransmit
2000020c  pMacDataTx
20001b74  pMacEnhancedAck
2000196c  pMacRadioConfig
20001980  pMacRfAntPwrSel
2000197c  pMacRfAntSwitchSel
20001d64  pOverridesTable
20001974  pRfPropTable
20001978  pRfPropTableOld
200017ba  parentFound
20001380  pinHandleTable
200012ec  pinLowerBound
200012e8  pinUpperBound
20001dce  pwrmgr_attribute
20001dcc  pwrmgr_initialized
20001951  reqAccessAlloc
000009d4  resourceDB
00018e6c  rfDriverTable
20001970  rfDrvTblPtr
00018fa4  rfPatchTable
20001954  rxCmdHandle
20001a46  rxFhRsl
20002d59  rxPromiscuousMode
20002d6c  rxRadioBufferPtr
00016781  sAddrCmp
00017d39  sAddrCpy
000176c5  sAddrExtCmp
000182f3  sAddrExtCpy
20001d50  sector_addr
00002965  startup_entry
00017d61  strlen
00003255  taskFxn
00000c40  tasksArr
20002e3c  tasksEvents
200001a4  ti_sysbios_BIOS_Module__state__V
1001bc25  ti_sysbios_BIOS_RtsGateProxy_Handle__label__S
1001bc25  ti_sysbios_BIOS_RtsGateProxy_Handle__label__S__mangled__
1001bab5  ti_sysbios_BIOS_RtsGateProxy_Object__delete__S
1001c175  ti_sysbios_BIOS_RtsGateProxy_Params__init__S
1001c175  ti_sysbios_BIOS_RtsGateProxy_Params__init__S__mangled__
1001c245  ti_sysbios_BIOS_RtsGateProxy_enter__E
1001c249  ti_sysbios_BIOS_RtsGateProxy_leave__E
1001c271  ti_sysbios_BIOS_RtsGateProxy_query__E
1001c271  ti_sysbios_BIOS_RtsGateProxy_query__E__mangled__
0001642d  ti_sysbios_BIOS_atExitFunc__I
00017b7d  ti_sysbios_BIOS_exitFunc__I
1001c031  ti_sysbios_BIOS_exit__E
1001bff5  ti_sysbios_BIOS_getCpuFreq__E
00018175  ti_sysbios_BIOS_getThreadType__E
000136bf  ti_sysbios_BIOS_linkedWithIncorrectBootLibrary__E
00013d5b  ti_sysbios_BIOS_nullFunc__I
00016e05  ti_sysbios_BIOS_registerRTSLock__I
00016e29  ti_sysbios_BIOS_removeRTSLock__I
000172b9  ti_sysbios_BIOS_rtsLock__I
00017add  ti_sysbios_BIOS_rtsUnlock__I
1001c041  ti_sysbios_BIOS_setThreadType__E
0001645d  ti_sysbios_BIOS_startFunc__I
1001c051  ti_sysbios_BIOS_start__E
0000cd79  ti_sysbios_family_arm_cc26xx_Boot_trimDevice
00001406  ti_sysbios_family_arm_cc26xx_Timer_Module__id__C
1001bb45  ti_sysbios_family_arm_cc26xx_Timer_Module__startupDone__S
200001e4  ti_sysbios_family_arm_cc26xx_Timer_Module__state__V
1001ba6d  ti_sysbios_family_arm_cc26xx_Timer_Module_startup__E
20001a48  ti_sysbios_family_arm_cc26xx_Timer_Object__table__V
000172d9  ti_sysbios_family_arm_cc26xx_Timer_dynamicStub__E
00000c44  ti_sysbios_family_arm_cc26xx_Timer_funcHookCH1__C
00000c48  ti_sysbios_family_arm_cc26xx_Timer_funcHookCH2__C
00018387  ti_sysbios_family_arm_cc26xx_Timer_getCount64__E
00015ab9  ti_sysbios_family_arm_cc26xx_Timer_getCurrentTick__E
1001c24d  ti_sysbios_family_arm_cc26xx_Timer_getExpiredTicks__E
00016e4d  ti_sysbios_family_arm_cc26xx_Timer_getMaxTicks__E
1001c251  ti_sysbios_family_arm_cc26xx_Timer_getPeriod__E
00015f3d  ti_sysbios_family_arm_cc26xx_Timer_initDevice__I
1001a465  ti_sysbios_family_arm_cc26xx_Timer_periodicStub__E
1001b765  ti_sysbios_family_arm_cc26xx_Timer_postInit__I
0001603b  ti_sysbios_family_arm_cc26xx_Timer_setNextTick__E
1001c255  ti_sysbios_family_arm_cc26xx_Timer_setPeriod__E
0001520d  ti_sysbios_family_arm_cc26xx_Timer_setThreshold__I
00010f91  ti_sysbios_family_arm_cc26xx_Timer_start__E
00001384  ti_sysbios_family_arm_cc26xx_Timer_startupNeeded__C
1001b791  ti_sysbios_family_arm_cc26xx_Timer_startup__E
200001ec  ti_sysbios_family_arm_cc26xx_TimestampProvider_Module__state__V
1001bb65  ti_sysbios_family_arm_cc26xx_TimestampProvider_Module_startup__E
00018077  ti_sysbios_family_arm_cc26xx_TimestampProvider_get32__E
1001b9cd  ti_sysbios_family_arm_cc26xx_TimestampProvider_get64__E
1001c12b  ti_sysbios_family_arm_cc26xx_TimestampProvider_getFreq__E
00001408  ti_sysbios_family_arm_cc26xx_TimestampProvider_useClockTimer__C
00001388  ti_sysbios_family_arm_m3_Hwi_E_alreadyDefined__C
0000138c  ti_sysbios_family_arm_m3_Hwi_E_hwiLimitExceeded__C
1001aed1  ti_sysbios_family_arm_m3_Hwi_Instance_finalize__E
1001a3c5  ti_sysbios_family_arm_m3_Hwi_Instance_init__E
20001de4  ti_sysbios_family_arm_m3_Hwi_Module_State_0_excActive__A
20001dd8  ti_sysbios_family_arm_m3_Hwi_Module_State_0_excContext__A
20001ddc  ti_sysbios_family_arm_m3_Hwi_Module_State_0_excStack__A
0000140a  ti_sysbios_family_arm_m3_Hwi_Module__id__C
20001d6c  ti_sysbios_family_arm_m3_Hwi_Module__root__V
1001bb85  ti_sysbios_family_arm_m3_Hwi_Module__startupDone__S
20000144  ti_sysbios_family_arm_m3_Hwi_Module__state__V
1001b1c1  ti_sysbios_family_arm_m3_Hwi_Module_startup__E
00001390  ti_sysbios_family_arm_m3_Hwi_NUM_INTERRUPTS__C
000011d0  ti_sysbios_family_arm_m3_Hwi_Object__DESC__C
00001070  ti_sysbios_family_arm_m3_Hwi_Object__PARAMS__C
00001394  ti_sysbios_family_arm_m3_Hwi_Object__count__C
1001aab1  ti_sysbios_family_arm_m3_Hwi_Object__create__S
1001bba5  ti_sysbios_family_arm_m3_Hwi_Object__delete__S
1001be65  ti_sysbios_family_arm_m3_Hwi_Object__destruct__S
1001b7bd  ti_sysbios_family_arm_m3_Hwi_Object__get__S
00001398  ti_sysbios_family_arm_m3_Hwi_Object__table__C
20001cc8  ti_sysbios_family_arm_m3_Hwi_Object__table__V
1001c139  ti_sysbios_family_arm_m3_Hwi_Params__init__S
0000139c  ti_sysbios_family_arm_m3_Hwi_ccr__C
1001af29  ti_sysbios_family_arm_m3_Hwi_construct
00015689  ti_sysbios_family_arm_m3_Hwi_construct2__E
1001ab15  ti_sysbios_family_arm_m3_Hwi_create
1001c259  ti_sysbios_family_arm_m3_Hwi_delete
1001c25d  ti_sysbios_family_arm_m3_Hwi_destruct
1001c145  ti_sysbios_family_arm_m3_Hwi_disableFxn__E
1001b251  ti_sysbios_family_arm_m3_Hwi_disableInterrupt__E
1001aa49  ti_sysbios_family_arm_m3_Hwi_dispatchC__I
20002c10  ti_sysbios_family_arm_m3_Hwi_dispatchTable
1001c899  ti_sysbios_family_arm_m3_Hwi_dispatch__I
1001c1f7  ti_sysbios_family_arm_m3_Hwi_doSwiRestore__I
1001c20f  ti_sysbios_family_arm_m3_Hwi_doTaskRestore__I
1001c151  ti_sysbios_family_arm_m3_Hwi_enableFxn__E
1001b295  ti_sysbios_family_arm_m3_Hwi_enableInterrupt__E
1001c9fd  ti_sysbios_family_arm_m3_Hwi_excHandlerAsm__I
000013a0  ti_sysbios_family_arm_m3_Hwi_excHandlerFunc__C
1001bbc5  ti_sysbios_family_arm_m3_Hwi_excHandler__I
1001b461  ti_sysbios_family_arm_m3_Hwi_getStackInfo__E
1001a695  ti_sysbios_family_arm_m3_Hwi_initNVIC__E
1001c9b5  ti_sysbios_family_arm_m3_Hwi_initStacks__E
000013a4  ti_sysbios_family_arm_m3_Hwi_nullIsrFunc__C
000013a8  ti_sysbios_family_arm_m3_Hwi_numSparseInterrupts__C
e000e000  ti_sysbios_family_arm_m3_Hwi_nvic
1001ca3b  ti_sysbios_family_arm_m3_Hwi_pendSV__I
1001c061  ti_sysbios_family_arm_m3_Hwi_plug__E
1001a315  ti_sysbios_family_arm_m3_Hwi_postInit__I
00017fb5  ti_sysbios_family_arm_m3_Hwi_post__E
000013ac  ti_sysbios_family_arm_m3_Hwi_priGroup__C
20000000  ti_sysbios_family_arm_m3_Hwi_ramVectors
00000000  ti_sysbios_family_arm_m3_Hwi_resetVectors
1001c215  ti_sysbios_family_arm_m3_Hwi_restoreFxn__E
1001ca53  ti_sysbios_family_arm_m3_Hwi_return
000182f9  ti_sysbios_family_arm_m3_Hwi_setFunc__E
1001be81  ti_sysbios_family_arm_m3_Hwi_setPriority__E
1001c1ff  ti_sysbios_family_arm_m3_Hwi_startup__E
00000c4c  ti_sysbios_family_arm_m3_Hwi_swiDisable__C
00000c50  ti_sysbios_family_arm_m3_Hwi_swiRestoreHwi__C
1001c009  ti_sysbios_family_arm_m3_Hwi_switchFromBootStack__E
1001c261  ti_sysbios_family_arm_m3_TaskSupport_Module__startupDone__S
1001c969  ti_sysbios_family_arm_m3_TaskSupport_buildTaskStack
1001c15d  ti_sysbios_family_arm_m3_TaskSupport_getStackAlignment__E
1001ca55  ti_sysbios_family_arm_m3_TaskSupport_glue
000013b0  ti_sysbios_family_arm_m3_TaskSupport_stackAlignment__C
1001b499  ti_sysbios_family_arm_m3_TaskSupport_start__E
1001ca65  ti_sysbios_family_arm_m3_TaskSupport_swap__E
1001ca1d  ti_sysbios_family_xxx_Hwi_switchAndRunFunc
1001bbe5  ti_sysbios_gates_GateHwi_Handle__label__S
1001b45f  ti_sysbios_gates_GateHwi_Instance_init__E
0000111c  ti_sysbios_gates_GateHwi_Module__FXNS__C
0000140c  ti_sysbios_gates_GateHwi_Module__id__C
20001d74  ti_sysbios_gates_GateHwi_Module__root__V
000011f0  ti_sysbios_gates_GateHwi_Object__DESC__C
00001330  ti_sysbios_gates_GateHwi_Object__PARAMS__C
1001ba91  ti_sysbios_gates_GateHwi_Object__create__S
1001bc05  ti_sysbios_gates_GateHwi_Object__delete__S
1001c169  ti_sysbios_gates_GateHwi_enter__E
1001c21b  ti_sysbios_gates_GateHwi_leave__E
1001c265  ti_sysbios_gates_GateHwi_query__E
1001bc25  ti_sysbios_gates_GateMutex_Handle__label__S
000014d0  ti_sysbios_gates_GateMutex_Instance_State_sem__O
1001c071  ti_sysbios_gates_GateMutex_Instance_finalize__E
1001be9d  ti_sysbios_gates_GateMutex_Instance_init__E
00001140  ti_sysbios_gates_GateMutex_Module__FXNS__C
0000140e  ti_sysbios_gates_GateMutex_Module__id__C
20001d7c  ti_sysbios_gates_GateMutex_Module__root__V
00001210  ti_sysbios_gates_GateMutex_Object__DESC__C
00001348  ti_sysbios_gates_GateMutex_Object__PARAMS__C
1001b645  ti_sysbios_gates_GateMutex_Object__create__S
1001bab5  ti_sysbios_gates_GateMutex_Object__delete__S
1001bc45  ti_sysbios_gates_GateMutex_Object__destruct__S
20001ad4  ti_sysbios_gates_GateMutex_Object__table__V
1001c175  ti_sysbios_gates_GateMutex_Params__init__S
1001b7e9  ti_sysbios_gates_GateMutex_construct
1001b675  ti_sysbios_gates_GateMutex_create
1001c269  ti_sysbios_gates_GateMutex_delete
1001c26d  ti_sysbios_gates_GateMutex_destruct
1001b6a5  ti_sysbios_gates_GateMutex_enter__E
1001bf99  ti_sysbios_gates_GateMutex_leave__E
1001c271  ti_sysbios_gates_GateMutex_query__E
1001c275  ti_sysbios_hal_Hwi_HwiProxy_Module__startupDone__S
1001bb85  ti_sysbios_hal_Hwi_HwiProxy_Module__startupDone__S__mangled__
1001c081  ti_sysbios_hal_Hwi_HwiProxy_Object__create__S
1001bba5  ti_sysbios_hal_Hwi_HwiProxy_Object__delete__S
1001c139  ti_sysbios_hal_Hwi_HwiProxy_Params__init__S
1001c139  ti_sysbios_hal_Hwi_HwiProxy_Params__init__S__mangled__
1001be45  ti_sysbios_hal_Hwi_HwiProxy_create
1001c279  ti_sysbios_hal_Hwi_HwiProxy_delete
1001c27d  ti_sysbios_hal_Hwi_HwiProxy_disableInterrupt__E
1001b251  ti_sysbios_hal_Hwi_HwiProxy_disableInterrupt__E__mangled__
1001c281  ti_sysbios_hal_Hwi_HwiProxy_enableInterrupt__E
1001b295  ti_sysbios_hal_Hwi_HwiProxy_enableInterrupt__E__mangled__
1001c285  ti_sysbios_hal_Hwi_HwiProxy_getStackInfo__E
1001b461  ti_sysbios_hal_Hwi_HwiProxy_getStackInfo__E__mangled__
00017fb5  ti_sysbios_hal_Hwi_HwiProxy_post__E
1001c289  ti_sysbios_hal_Hwi_HwiProxy_startup__E
1001c1ff  ti_sysbios_hal_Hwi_HwiProxy_startup__E__mangled__
1001c28d  ti_sysbios_hal_Hwi_HwiProxy_switchFromBootStack__E
1001c009  ti_sysbios_hal_Hwi_HwiProxy_switchFromBootStack__E__mangled__
1001c1ed  ti_sysbios_hal_Hwi_Instance_finalize__E
1001b9f5  ti_sysbios_hal_Hwi_Instance_init__E
20001d84  ti_sysbios_hal_Hwi_Module__root__V
1001c01d  ti_sysbios_hal_Hwi_Module_startup__E
00001230  ti_sysbios_hal_Hwi_Object__DESC__C
000010a0  ti_sysbios_hal_Hwi_Object__PARAMS__C
1001bc65  ti_sysbios_hal_Hwi_Object__delete__S
00018181  ti_sysbios_hal_Hwi_Params__init__S
1001ab79  ti_sysbios_hal_Hwi_create
1001c291  ti_sysbios_hal_Hwi_delete
1001c27d  ti_sysbios_hal_Hwi_disableInterrupt__E
1001c27d  ti_sysbios_hal_Hwi_disableInterrupt__E
1001c281  ti_sysbios_hal_Hwi_enableInterrupt__E
1001c281  ti_sysbios_hal_Hwi_enableInterrupt__E
1001c285  ti_sysbios_hal_Hwi_getStackInfo__E
1001c285  ti_sysbios_hal_Hwi_getStackInfo__E
1001b815  ti_sysbios_hal_Hwi_initStack
00017fb5  ti_sysbios_hal_Hwi_post__E
1001c289  ti_sysbios_hal_Hwi_startup__E
1001c289  ti_sysbios_hal_Hwi_startup__E
1001c295  ti_sysbios_hal_Hwi_switchFromBootStack__E
1001c295  ti_sysbios_hal_Hwi_switchFromBootStack__E
000013b4  ti_sysbios_heaps_HeapMem_E_memory__C
1001bc85  ti_sysbios_heaps_HeapMem_Handle__label__S
20001de8  ti_sysbios_heaps_HeapMem_Instance_State_0_buf__A
1001b4d1  ti_sysbios_heaps_HeapMem_Instance_init__E
1001bc25  ti_sysbios_heaps_HeapMem_Module_GateProxy_Handle__label__S
1001bc25  ti_sysbios_heaps_HeapMem_Module_GateProxy_Handle__label__S__mangled__
1001bab5  ti_sysbios_heaps_HeapMem_Module_GateProxy_Object__delete__S
1001c175  ti_sysbios_heaps_HeapMem_Module_GateProxy_Params__init__S
1001c175  ti_sysbios_heaps_HeapMem_Module_GateProxy_Params__init__S__mangled__
1001c299  ti_sysbios_heaps_HeapMem_Module_GateProxy_enter__E
1001c29d  ti_sysbios_heaps_HeapMem_Module_GateProxy_leave__E
1001c271  ti_sysbios_heaps_HeapMem_Module_GateProxy_query__E
1001c271  ti_sysbios_heaps_HeapMem_Module_GateProxy_query__E__mangled__
000010cc  ti_sysbios_heaps_HeapMem_Module__FXNS__C
000013b8  ti_sysbios_heaps_HeapMem_Module__gateObj__C
00001410  ti_sysbios_heaps_HeapMem_Module__id__C
20001d8c  ti_sysbios_heaps_HeapMem_Module__root__V
00001250  ti_sysbios_heaps_HeapMem_Object__DESC__C
00001164  ti_sysbios_heaps_HeapMem_Object__PARAMS__C
000013bc  ti_sysbios_heaps_HeapMem_Object__count__C
1001b841  ti_sysbios_heaps_HeapMem_Object__create__S
1001bca5  ti_sysbios_heaps_HeapMem_Object__delete__S
1001b86d  ti_sysbios_heaps_HeapMem_Object__get__S
000013c0  ti_sysbios_heaps_HeapMem_Object__table__C
20001ce0  ti_sysbios_heaps_HeapMem_Object__table__V
1001a195  ti_sysbios_heaps_HeapMem_alloc__E
1001a791  ti_sysbios_heaps_HeapMem_free__E
1001b209  ti_sysbios_heaps_HeapMem_getStats__E
1001b541  ti_sysbios_heaps_HeapMem_init__I
1001c2a1  ti_sysbios_heaps_HeapMem_isBlocking__E
000013c4  ti_sysbios_heaps_HeapMem_reqAlign__C
1001c101  ti_sysbios_heaps_HeapMem_restore__E
1001bfc9  ti_sysbios_knl_Clock_Instance_finalize__E
1001b509  ti_sysbios_knl_Clock_Instance_init__E
000014d4  ti_sysbios_knl_Clock_Module_State_clockQ__O
20001d94  ti_sysbios_knl_Clock_Module__root__V
20000178  ti_sysbios_knl_Clock_Module__state__V
1001bcc5  ti_sysbios_knl_Clock_Module_startup__E
00001270  ti_sysbios_knl_Clock_Object__DESC__C
00001188  ti_sysbios_knl_Clock_Object__PARAMS__C
1001bad9  ti_sysbios_knl_Clock_Object__delete__S
1001bce5  ti_sysbios_knl_Clock_Object__destruct__S
20001c54  ti_sysbios_knl_Clock_Object__table__V
1001c181  ti_sysbios_knl_Clock_Params__init__S
1001c2a5  ti_sysbios_knl_Clock_TimerProxy_Module__startupDone__S
1001bb45  ti_sysbios_knl_Clock_TimerProxy_Module__startupDone__S__mangled__
1001c091  ti_sysbios_knl_Clock_TimerProxy_getCurrentTick__E
1001c2a9  ti_sysbios_knl_Clock_TimerProxy_getExpiredTicks__E
1001c0a1  ti_sysbios_knl_Clock_TimerProxy_getMaxTicks__E
1001c2ad  ti_sysbios_knl_Clock_TimerProxy_getPeriod__E
1001c0b1  ti_sysbios_knl_Clock_TimerProxy_setNextTick__E
1001b791  ti_sysbios_knl_Clock_TimerProxy_startup__E
1001b791  ti_sysbios_knl_Clock_TimerProxy_startup__E__mangled__
1001ba1d  ti_sysbios_knl_Clock_addI__E
1001b575  ti_sysbios_knl_Clock_construct
1001b3e9  ti_sysbios_knl_Clock_create
1001c2b1  ti_sysbios_knl_Clock_delete
1001c2b5  ti_sysbios_knl_Clock_destruct
00017d89  ti_sysbios_knl_Clock_doTick__I
000167ad  ti_sysbios_knl_Clock_getTicksUntilInterrupt__E
1001b6d5  ti_sysbios_knl_Clock_getTicks__E
00016805  ti_sysbios_knl_Clock_getTimeout__E
1001c18d  ti_sysbios_knl_Clock_getTimerHandle__E
0001838b  ti_sysbios_knl_Clock_isActive__E
1001be63  ti_sysbios_knl_Clock_logTick__E
1001c2b9  ti_sysbios_knl_Clock_removeI__E
1001beb9  ti_sysbios_knl_Clock_scheduleNextTick__E
000013c8  ti_sysbios_knl_Clock_serviceMargin__C
1001c2bd  ti_sysbios_knl_Clock_setTimeout__E
1001a715  ti_sysbios_knl_Clock_startI__E
1001bfdf  ti_sysbios_knl_Clock_start__E
000172f9  ti_sysbios_knl_Clock_stop__E
00001414  ti_sysbios_knl_Clock_tickMode__C
00000c54  ti_sysbios_knl_Clock_tickPeriod__C
00000c58  ti_sysbios_knl_Clock_triggerClock__C
0001440b  ti_sysbios_knl_Clock_triggerFunc__I
1001a809  ti_sysbios_knl_Clock_walkQueueDynamic__E
00010931  ti_sysbios_knl_Clock_workFuncDynamic__E
1001a881  ti_sysbios_knl_Clock_workFunc__E
00000c2c  ti_sysbios_knl_Idle_funcList__A
00001378  ti_sysbios_knl_Idle_funcList__C
1001c207  ti_sysbios_knl_Idle_loop__E
1001bd05  ti_sysbios_knl_Idle_run__E
000014d8  ti_sysbios_knl_Mailbox_Instance_State_dataQue__O
000014dc  ti_sysbios_knl_Mailbox_Instance_State_dataSem__O
000014e0  ti_sysbios_knl_Mailbox_Instance_State_freeQue__O
000014e4  ti_sysbios_knl_Mailbox_Instance_State_freeSem__O
1001a8f9  ti_sysbios_knl_Mailbox_Instance_finalize__E
1001a0cd  ti_sysbios_knl_Mailbox_Instance_init__E
20001d9c  ti_sysbios_knl_Mailbox_Module__root__V
1001b2d9  ti_sysbios_knl_Mailbox_Module_startup__E
00001290  ti_sysbios_knl_Mailbox_Object__DESC__C
0000103c  ti_sysbios_knl_Mailbox_Object__PARAMS__C
000013cc  ti_sysbios_knl_Mailbox_Object__count__C
1001bd25  ti_sysbios_knl_Mailbox_Object__delete__S
1001bed5  ti_sysbios_knl_Mailbox_Object__destruct__S
1001b899  ti_sysbios_knl_Mailbox_Object__get__S
000013d0  ti_sysbios_knl_Mailbox_Object__table__C
1001c199  ti_sysbios_knl_Mailbox_Params__init__S
1001af81  ti_sysbios_knl_Mailbox_construct
1001abdd  ti_sysbios_knl_Mailbox_create
1001c2c1  ti_sysbios_knl_Mailbox_delete
1001c2c5  ti_sysbios_knl_Mailbox_destruct
000013d4  ti_sysbios_knl_Mailbox_maxTypeAlign__C
1001a969  ti_sysbios_knl_Mailbox_pend__E
1001b8c5  ti_sysbios_knl_Mailbox_postInit__I
1001a58d  ti_sysbios_knl_Mailbox_post__E
1001c227  ti_sysbios_knl_Queue_Instance_init__E
20001da4  ti_sysbios_knl_Queue_Module__root__V
000012b0  ti_sysbios_knl_Queue_Object__DESC__C
00001360  ti_sysbios_knl_Queue_Object__PARAMS__C
000013d8  ti_sysbios_knl_Queue_Object__count__C
1001bd45  ti_sysbios_knl_Queue_Object__delete__S
1001bef1  ti_sysbios_knl_Queue_Object__destruct__S
1001bd65  ti_sysbios_knl_Queue_Object__get__S
000013dc  ti_sysbios_knl_Queue_Object__table__C
1001b8f1  ti_sysbios_knl_Queue_construct
1001b91d  ti_sysbios_knl_Queue_create
1001c2c9  ti_sysbios_knl_Queue_delete
1001c1a5  ti_sysbios_knl_Queue_dequeue__E
1001c2cd  ti_sysbios_knl_Queue_destruct
1001c22d  ti_sysbios_knl_Queue_elemClear__E
1001c10f  ti_sysbios_knl_Queue_empty__E
1001c1b1  ti_sysbios_knl_Queue_enqueue__E
1001bf0d  ti_sysbios_knl_Queue_get__E
1001c2d1  ti_sysbios_knl_Queue_head__E
1001c2d5  ti_sysbios_knl_Queue_next__E
1001bf29  ti_sysbios_knl_Queue_put__E
1001c11d  ti_sysbios_knl_Queue_remove__E
000014e8  ti_sysbios_knl_Semaphore_Instance_State_pendQ__O
1001c0c1  ti_sysbios_knl_Semaphore_Instance_finalize__E
1001bafd  ti_sysbios_knl_Semaphore_Instance_init__E
20001dac  ti_sysbios_knl_Semaphore_Module__root__V
000012d0  ti_sysbios_knl_Semaphore_Object__DESC__C
000011ac  ti_sysbios_knl_Semaphore_Object__PARAMS__C
1001bb21  ti_sysbios_knl_Semaphore_Object__delete__S
1001bd85  ti_sysbios_knl_Semaphore_Object__destruct__S
1001c1bd  ti_sysbios_knl_Semaphore_Params__init__S
1001b705  ti_sysbios_knl_Semaphore_construct
1001b5a9  ti_sysbios_knl_Semaphore_create
1001c2d9  ti_sysbios_knl_Semaphore_delete
1001c2dd  ti_sysbios_knl_Semaphore_destruct
1001b949  ti_sysbios_knl_Semaphore_pendTimeout__I
1001a001  ti_sysbios_knl_Semaphore_pend__E
1001ac41  ti_sysbios_knl_Semaphore_post__E
1001bf97  ti_sysbios_knl_Swi_Instance_finalize__E
1001aca5  ti_sysbios_knl_Swi_Instance_init__E
20001ba0  ti_sysbios_knl_Swi_Module_State_0_readyQ__A
20001db4  ti_sysbios_knl_Swi_Module__root__V
200001c8  ti_sysbios_knl_Swi_Module__state__V
1001c233  ti_sysbios_knl_Swi_Module_startup__E
000012f0  ti_sysbios_knl_Swi_Object__DESC__C
000010f4  ti_sysbios_knl_Swi_Object__PARAMS__C
000013e0  ti_sysbios_knl_Swi_Object__count__C
1001bda5  ti_sysbios_knl_Swi_Object__delete__S
1001bf45  ti_sysbios_knl_Swi_Object__destruct__S
1001b975  ti_sysbios_knl_Swi_Object__get__S
000013e4  ti_sysbios_knl_Swi_Object__table__C
20001bd0  ti_sysbios_knl_Swi_Object__table__V
1001c1c9  ti_sysbios_knl_Swi_Params__init__S
1001b085  ti_sysbios_knl_Swi_construct
000176e1  ti_sysbios_knl_Swi_construct2__E
1001ad05  ti_sysbios_knl_Swi_create
1001c2e1  ti_sysbios_knl_Swi_delete
1001c2e5  ti_sysbios_knl_Swi_destruct
1001c0d1  ti_sysbios_knl_Swi_disable__E
1001c0e1  ti_sysbios_knl_Swi_enabled__E
0001818d  ti_sysbios_knl_Swi_getTrigger__E
000013e8  ti_sysbios_knl_Swi_numPriorities__C
00017af5  ti_sysbios_knl_Swi_or__E
1001c2e9  ti_sysbios_knl_Swi_postInit__I
1001b31d  ti_sysbios_knl_Swi_post__E
1001ad61  ti_sysbios_knl_Swi_restoreHwi__E
1001b5dd  ti_sysbios_knl_Swi_restore__E
1001b0d5  ti_sysbios_knl_Swi_runLoop__I
1001afd9  ti_sysbios_knl_Swi_run__I
1001b031  ti_sysbios_knl_Swi_schedule__I
00015f71  ti_sysbios_knl_Swi_setPri__E
1001c239  ti_sysbios_knl_Swi_startup__E
20002820  ti_sysbios_knl_Task_Instance_State_0_stack__A
1001a4f9  ti_sysbios_knl_Task_Instance_finalize__E
1001a259  ti_sysbios_knl_Task_Instance_init__E
20001de0  ti_sysbios_knl_Task_Module_State_0_idleTask__A
20001c00  ti_sysbios_knl_Task_Module_State_0_readyQ__A
000014ec  ti_sysbios_knl_Task_Module_State_inactiveQ__O
20001dbc  ti_sysbios_knl_Task_Module__root__V
20000100  ti_sysbios_knl_Task_Module__state__V
1001adbd  ti_sysbios_knl_Task_Module_startup__E
00001310  ti_sysbios_knl_Task_Object__DESC__C
00001000  ti_sysbios_knl_Task_Object__PARAMS__C
000013ec  ti_sysbios_knl_Task_Object__count__C
1001bdc5  ti_sysbios_knl_Task_Object__delete__S
1001bf61  ti_sysbios_knl_Task_Object__destruct__S
1001bde5  ti_sysbios_knl_Task_Object__get__S
000013f0  ti_sysbios_knl_Task_Object__table__C
200019b0  ti_sysbios_knl_Task_Object__table__V
1001c1d5  ti_sysbios_knl_Task_Params__init__S
1001c2ed  ti_sysbios_knl_Task_SupportProxy_Module__startupDone__S
1001c261  ti_sysbios_knl_Task_SupportProxy_Module__startupDone__S__mangled__
1001c2f1  ti_sysbios_knl_Task_SupportProxy_getStackAlignment__E
1001c15d  ti_sysbios_knl_Task_SupportProxy_getStackAlignment__E__mangled__
1001c2f5  ti_sysbios_knl_Task_SupportProxy_start__E
1001b499  ti_sysbios_knl_Task_SupportProxy_start__E__mangled__
1001c2f9  ti_sysbios_knl_Task_SupportProxy_swap__E
1001ca65  ti_sysbios_knl_Task_SupportProxy_swap__E__mangled__
000013f4  ti_sysbios_knl_Task_allBlockedFunc__C
1001b361  ti_sysbios_knl_Task_allBlockedFunction__I
1001b611  ti_sysbios_knl_Task_blockI__E
1001b125  ti_sysbios_knl_Task_construct
1001ae19  ti_sysbios_knl_Task_create
000013f8  ti_sysbios_knl_Task_defaultStackHeap__C
000013fc  ti_sysbios_knl_Task_defaultStackSize__C
1001c2fd  ti_sysbios_knl_Task_delete
1001c301  ti_sysbios_knl_Task_destruct
1001c0f1  ti_sysbios_knl_Task_disable__E
1001c23f  ti_sysbios_knl_Task_enable__E
1001be05  ti_sysbios_knl_Task_enter__I
1001b425  ti_sysbios_knl_Task_exit__E
00001412  ti_sysbios_knl_Task_initStackFlag__C
00001400  ti_sysbios_knl_Task_numConstructedTasks__C
1001a611  ti_sysbios_knl_Task_postInit__I
1001b735  ti_sysbios_knl_Task_processVitalTaskFlag__I
1001be25  ti_sysbios_knl_Task_restoreHwi__E
1001ba45  ti_sysbios_knl_Task_restore__E
1001b175  ti_sysbios_knl_Task_schedule__I
1001c1e1  ti_sysbios_knl_Task_self__E
1001bf7d  ti_sysbios_knl_Task_sleepTimeout__I
1001a9d9  ti_sysbios_knl_Task_sleep__E
1001ae75  ti_sysbios_knl_Task_startCore__E
1001c305  ti_sysbios_knl_Task_startup__E
1001ca6d  ti_sysbios_knl_Task_swapReturn
1001b9a1  ti_sysbios_knl_Task_unblockI__E
1001bfb1  ti_sysbios_knl_Task_unblock__E
1001b3a5  ti_sysbios_knl_Task_yield__E
00001494  ti_sysbios_rom_ROM_AONRTCChannelEnable
00001498  ti_sysbios_rom_ROM_AONRTCCompareValueSet
0000149c  ti_sysbios_rom_ROM_AONRTCCurrentCompareValueGet
000014a0  ti_sysbios_rom_ROM_AONRTCEventClear
000014a4  ti_sysbios_rom_ROM_ti_sysbios_family_arm_cc26xx_Timer_getCount64__E
000014a8  ti_sysbios_rom_ROM_ti_sysbios_family_arm_cc26xx_Timer_getCurrentTick__E
000014ac  ti_sysbios_rom_ROM_ti_sysbios_family_arm_cc26xx_Timer_getMaxTicks__E
000014b0  ti_sysbios_rom_ROM_ti_sysbios_family_arm_cc26xx_Timer_initDevice__I
000014b4  ti_sysbios_rom_ROM_ti_sysbios_family_arm_cc26xx_Timer_setNextTick__E
000014b8  ti_sysbios_rom_ROM_ti_sysbios_family_arm_cc26xx_Timer_setThreshold__I
000014bc  ti_sysbios_rom_ROM_ti_sysbios_family_arm_cc26xx_Timer_start__E
000014c0  ti_sysbios_rom_ROM_ti_sysbios_family_arm_cc26xx_TimestampProvider_get32__E
000014c4  ti_sysbios_rom_ROM_xdc_runtime_Startup_getState__I
000014c8  ti_sysbios_rom_ROM_xdc_runtime_System_SupportProxy_abort__E
000014cc  ti_sysbios_rom_ROM_xdc_runtime_System_SupportProxy_exit__E
000146b7  ti_sysbios_rom_cortexm_cc13xx_CC13xx_badRomRevision__E
00017b0d  ti_sysbios_rom_cortexm_cc13xx_CC13xx_checkRevision__E
1001ca97  ti_sysbios_rom_cortexm_cc13xx_CC13xx_getRevision__E
20000234  timerAlignedQ
20002e24  timerHead
20000230  timerUnalignedQ
20001c33  txAckReq
20001b70  txCmdHandle
00011919  txComplete
00018ed4  txPowerTable_subg_CC1310
00018f29  txPowerTable_subg_CC1350
00018fb4  txPwrTbl
00000ad4  uartCC26XXHWAttrs
20002a20  uartCC26XXObjects
20002da8  uartCC26XXRingBuffer
200007d4  uartParams
200007f8  user0Cfg
00001428  xdc_runtime_Assert_E_assertFailed__C
1001c5a5  xdc_runtime_Assert_raise__I
1001c6e9  xdc_runtime_Core_assignLabel__I
1001c5ed  xdc_runtime_Core_assignParams__I
1001c635  xdc_runtime_Core_constructObject__I
1001c401  xdc_runtime_Core_createObject__I
1001c4f5  xdc_runtime_Core_deleteObject__I
1001c79d  xdc_runtime_Core_destructObject__I
0000142c  xdc_runtime_Error_E_memory__C
20001c74  xdc_runtime_Error_IgnoreBlock
1001c7b5  xdc_runtime_Error_check__E
00001430  xdc_runtime_Error_policyFxn__C
1001c483  xdc_runtime_Error_policySpin__E
00001490  xdc_runtime_Error_policy__C
1001c765  xdc_runtime_Error_raiseX__E
1001c881  xdc_runtime_Gate_enterSystem__E
1001c875  xdc_runtime_Gate_leaveSystem__E
00001434  xdc_runtime_IGateProvider_Interface__BASE__C
00001438  xdc_runtime_IHeap_Interface__BASE__C
0000143c  xdc_runtime_IModule_Interface__BASE__C
1001bbe5  xdc_runtime_Main_Module_GateProxy_Handle__label__S
1001c265  xdc_runtime_Main_Module_GateProxy_query__E
00001440  xdc_runtime_Main_Module__diagsEnabled__C
00001444  xdc_runtime_Main_Module__diagsIncluded__C
00001448  xdc_runtime_Main_Module__diagsMask__C
00001488  xdc_runtime_Main_Module__id__C
1001bc85  xdc_runtime_Memory_HeapProxy_Handle__label__S
1001bc85  xdc_runtime_Memory_HeapProxy_Handle__label__S__mangled__
1001bca5  xdc_runtime_Memory_HeapProxy_Object__delete__S
1001c885  xdc_runtime_Memory_HeapProxy_alloc__E
1001c889  xdc_runtime_Memory_HeapProxy_free__E
0000148a  xdc_runtime_Memory_Module__id__C
20000200  xdc_runtime_Memory_Module__state__V
1001c485  xdc_runtime_Memory_alloc__E
1001c849  xdc_runtime_Memory_calloc__E
0000144c  xdc_runtime_Memory_defaultHeapInstance__C
1001c7fd  xdc_runtime_Memory_free__E
1001c855  xdc_runtime_Memory_getMaxDefaultTypeAlign__E
1001c781  xdc_runtime_Memory_valloc__E
20001dc4  xdc_runtime_Registry_Module__state__V
00017319  xdc_runtime_Registry_findById__E
200001f0  xdc_runtime_Startup_Module__state__V
00000001  xdc_runtime_Startup__EXECFXN__C
00000001  xdc_runtime_Startup__RESETFXN__C
00001450  xdc_runtime_Startup_execImpl__C
1001c555  xdc_runtime_Startup_exec__E
00017e41  xdc_runtime_Startup_exec__I
00000bf4  xdc_runtime_Startup_firstFxns__A
00001418  xdc_runtime_Startup_firstFxns__C
0001388d  xdc_runtime_Startup_getState__I
00001420  xdc_runtime_Startup_lastFxns__C
00001454  xdc_runtime_Startup_maxPasses__C
00018199  xdc_runtime_Startup_reset__I
000181a5  xdc_runtime_Startup_rtsDone__E
00000bc4  xdc_runtime_Startup_sfxnRts__A
00001458  xdc_runtime_Startup_sfxnRts__C
00000b20  xdc_runtime_Startup_sfxnTab__A
0000145c  xdc_runtime_Startup_sfxnTab__C
00001460  xdc_runtime_Startup_startModsFxn__C
1001c309  xdc_runtime_Startup_startMods__I
00001464  xdc_runtime_SysCallback_abortFxn__C
1001c80d  xdc_runtime_SysCallback_abort__E
00014dcb  xdc_runtime_SysCallback_defaultAbort
00015b5f  xdc_runtime_SysCallback_defaultExit
0001838f  xdc_runtime_SysCallback_defaultReady
00001468  xdc_runtime_SysCallback_exitFxn__C
1001c81d  xdc_runtime_SysCallback_exit__E
00000c5c  xdc_runtime_SysCallback_putchFxn__C
00017fe5  xdc_runtime_SysCallback_putch__E
00000c60  xdc_runtime_SysCallback_readyFxn__C
00017ff5  xdc_runtime_SysCallback_ready__E
1001bbe5  xdc_runtime_System_Module_GateProxy_Handle__label__S
1001bbe5  xdc_runtime_System_Module_GateProxy_Handle__label__S__mangled__
1001bc05  xdc_runtime_System_Module_GateProxy_Object__delete__S
1001c88d  xdc_runtime_System_Module_GateProxy_enter__E
1001c891  xdc_runtime_System_Module_GateProxy_leave__E
1001c265  xdc_runtime_System_Module_GateProxy_query__E
1001c265  xdc_runtime_System_Module_GateProxy_query__E__mangled__
200001f8  xdc_runtime_System_Module__state__V
1001c87b  xdc_runtime_System_Module_startup__E
1001c80d  xdc_runtime_System_SupportProxy_abort__E
1001c81d  xdc_runtime_System_SupportProxy_exit__E
00017fe5  xdc_runtime_System_SupportProxy_putch__E
00017ff5  xdc_runtime_System_SupportProxy_ready__E
0000146c  xdc_runtime_System_abortFxn__C
1001c895  xdc_runtime_System_abortSpin__E
1001c745  xdc_runtime_System_abort__E
1001c67d  xdc_runtime_System_atexit__E
0000521d  xdc_runtime_System_doPrint__I
00001470  xdc_runtime_System_exitFxn__C
1001c897  xdc_runtime_System_exitSpin__E
1001c7cd  xdc_runtime_System_exit__E
00000c64  xdc_runtime_System_extendFxn__C
0001261d  xdc_runtime_System_formatNum__I
00001474  xdc_runtime_System_maxAtexitHandlers__C
0000c6d1  xdc_runtime_System_printfExtend__I
0001774b  xdc_runtime_System_printf__E
00018393  xdc_runtime_System_printf_va__F
1001c6b5  xdc_runtime_System_processAtExit__E
0001682f  xdc_runtime_System_putchar__I
00016bc3  xdc_runtime_System_vprintf__E
00018005  xdc_runtime_System_vsnprintf__E
0000148c  xdc_runtime_Text_charCnt__C
00000bc3  xdc_runtime_Text_charTab__A
00001478  xdc_runtime_Text_charTab__C
1001c719  xdc_runtime_Text_cordText__E
0000148e  xdc_runtime_Text_isLoaded__C
0000147c  xdc_runtime_Text_nameEmpty__C
00001480  xdc_runtime_Text_nameStatic__C
00001484  xdc_runtime_Text_nameUnknown__C
000167d9  xdc_runtime_Text_printVisFxn__I
00013601  xdc_runtime_Text_putLab__E
000109c9  xdc_runtime_Text_putMod__E
0000f7dd  xdc_runtime_Text_putSite__E
00000bd6  xdc_runtime_Text_registryModsLastId__C
1001c7e5  xdc_runtime_Text_ropeText__E
00000c0a  xdc_runtime_Text_unnamedModsLastId__C
00000c68  xdc_runtime_Text_visitRopeFxn__C
00018261  xdc_runtime_Text_visitRope__I
00014d45  xdc_runtime_Text_xprintf__I
1001c82d  xdc_runtime_Timestamp_SupportProxy_get32__E
00018077  xdc_runtime_Timestamp_SupportProxy_get32__E__mangled__
1001b9cd  xdc_runtime_Timestamp_SupportProxy_get64__E
1001b9cd  xdc_runtime_Timestamp_SupportProxy_get64__E__mangled__
1001c12b  xdc_runtime_Timestamp_SupportProxy_getFreq__E
1001c12b  xdc_runtime_Timestamp_SupportProxy_getFreq__E__mangled__
1001c82d  xdc_runtime_Timestamp_get32__E
1001c82d  xdc_runtime_Timestamp_get32__E
1001b9cd  xdc_runtime_Timestamp_get64__E
1001b9cd  xdc_runtime_Timestamp_get64__E
1001c12b  xdc_runtime_Timestamp_getFreq__E
1001c12b  xdc_runtime_Timestamp_getFreq__E


GLOBAL SYMBOLS: SORTED BY Symbol Address

address   name
-------   ----
00000000  __ASM__
00000000  ti_sysbios_family_arm_m3_Hwi_resetVectors
00000001  xdc_runtime_Startup__EXECFXN__C
00000001  xdc_runtime_Startup__RESETFXN__C
0000003c  macKeySourceLen
00000040  macAuthTagLen
00000048  macCmdLen
00000051  macSendMsgDataSize
0000005d  macCbackEventTbl
00000069  macCmdBufSize
00000077  macTxFrameSuccess
00000085  macTxFrameFailed
00000094  macSendMsgBufSize
000000ac  macCmdIncludeFHIe
000000b0  __ISA__
000000c2  __PLAT__
000000e4  macTimerRolloverValue
000000e9  __TARG__
0000010e  __TRDR__
00000124  macMRFSKStdPhyTable
00000174  macSecurityPibTbl
000001cc  macAssociatingSt
0000023a  macPollingSt
000002a8  macStartingSt
00000318  macPibDefaults
000003a0  macPibTbl
00000498  fhSupFrameTypes
000004a0  FHPIB_defaults
00000500  __STACK_SIZE
0000052c  FH_PibTbl
00000658  FH_stateMatrix
00000825  Jdllc_keySource
000008a8  macIdleSt
00000916  macScanningSt
000009a0  BoardGpioInitTable
000009d4  resourceDB
00000aac  UARTCC26XX_fxnTable
00000ad4  uartCC26XXHWAttrs
00000afc  UART_defaultParams
00000b20  xdc_runtime_Startup_sfxnTab__A
00000b80  PowerCC26XX_config
00000bb0  msacbackSizeTable
00000bc3  xdc_runtime_Text_charTab__A
00000bc4  xdc_runtime_Startup_sfxnRts__A
00000bd6  xdc_runtime_Text_registryModsLastId__C
00000bd8  cryptoCC26XXHWAttrs
00000be8  UART_config
00000bf4  xdc_runtime_Startup_firstFxns__A
00000c00  ADCBuf_count
00000c01  ADC_count
00000c02  Display_count
00000c03  I2C_count
00000c04  NVS_count
00000c05  PWM_count
00000c06  SD_count
00000c07  SPI_count
00000c08  UART_count
00000c09  Watchdog_count
00000c0a  xdc_runtime_Text_unnamedModsLastId__C
00000c1c  CryptoCC26XX_config
00000c24  PINCC26XX_hwAttrs
00000c2c  ti_sysbios_knl_Idle_funcList__A
00000c40  tasksArr
00000c44  ti_sysbios_family_arm_cc26xx_Timer_funcHookCH1__C
00000c48  ti_sysbios_family_arm_cc26xx_Timer_funcHookCH2__C
00000c4c  ti_sysbios_family_arm_m3_Hwi_swiDisable__C
00000c50  ti_sysbios_family_arm_m3_Hwi_swiRestoreHwi__C
00000c54  ti_sysbios_knl_Clock_tickPeriod__C
00000c58  ti_sysbios_knl_Clock_triggerClock__C
00000c5c  xdc_runtime_SysCallback_putchFxn__C
00000c60  xdc_runtime_SysCallback_readyFxn__C
00000c64  xdc_runtime_System_extendFxn__C
00000c68  xdc_runtime_Text_visitRopeFxn__C
00001000  ti_sysbios_knl_Task_Object__PARAMS__C
0000103c  ti_sysbios_knl_Mailbox_Object__PARAMS__C
00001070  ti_sysbios_family_arm_m3_Hwi_Object__PARAMS__C
000010a0  ti_sysbios_hal_Hwi_Object__PARAMS__C
000010cc  ti_sysbios_heaps_HeapMem_Module__FXNS__C
000010f4  ti_sysbios_knl_Swi_Object__PARAMS__C
0000111c  ti_sysbios_gates_GateHwi_Module__FXNS__C
00001140  ti_sysbios_gates_GateMutex_Module__FXNS__C
00001164  ti_sysbios_heaps_HeapMem_Object__PARAMS__C
00001188  ti_sysbios_knl_Clock_Object__PARAMS__C
000011ac  ti_sysbios_knl_Semaphore_Object__PARAMS__C
000011d0  ti_sysbios_family_arm_m3_Hwi_Object__DESC__C
000011f0  ti_sysbios_gates_GateHwi_Object__DESC__C
00001210  ti_sysbios_gates_GateMutex_Object__DESC__C
00001230  ti_sysbios_hal_Hwi_Object__DESC__C
00001250  ti_sysbios_heaps_HeapMem_Object__DESC__C
00001270  ti_sysbios_knl_Clock_Object__DESC__C
00001290  ti_sysbios_knl_Mailbox_Object__DESC__C
000012b0  ti_sysbios_knl_Queue_Object__DESC__C
000012d0  ti_sysbios_knl_Semaphore_Object__DESC__C
000012f0  ti_sysbios_knl_Swi_Object__DESC__C
00001310  ti_sysbios_knl_Task_Object__DESC__C
00001330  ti_sysbios_gates_GateHwi_Object__PARAMS__C
00001348  ti_sysbios_gates_GateMutex_Object__PARAMS__C
00001360  ti_sysbios_knl_Queue_Object__PARAMS__C
00001378  ti_sysbios_knl_Idle_funcList__C
00001384  ti_sysbios_family_arm_cc26xx_Timer_startupNeeded__C
00001388  ti_sysbios_family_arm_m3_Hwi_E_alreadyDefined__C
0000138c  ti_sysbios_family_arm_m3_Hwi_E_hwiLimitExceeded__C
00001390  ti_sysbios_family_arm_m3_Hwi_NUM_INTERRUPTS__C
00001394  ti_sysbios_family_arm_m3_Hwi_Object__count__C
00001398  ti_sysbios_family_arm_m3_Hwi_Object__table__C
0000139c  ti_sysbios_family_arm_m3_Hwi_ccr__C
000013a0  ti_sysbios_family_arm_m3_Hwi_excHandlerFunc__C
000013a4  ti_sysbios_family_arm_m3_Hwi_nullIsrFunc__C
000013a8  ti_sysbios_family_arm_m3_Hwi_numSparseInterrupts__C
000013ac  ti_sysbios_family_arm_m3_Hwi_priGroup__C
000013b0  ti_sysbios_family_arm_m3_TaskSupport_stackAlignment__C
000013b4  ti_sysbios_heaps_HeapMem_E_memory__C
000013b8  ti_sysbios_heaps_HeapMem_Module__gateObj__C
000013bc  ti_sysbios_heaps_HeapMem_Object__count__C
000013c0  ti_sysbios_heaps_HeapMem_Object__table__C
000013c4  ti_sysbios_heaps_HeapMem_reqAlign__C
000013c8  ti_sysbios_knl_Clock_serviceMargin__C
000013cc  ti_sysbios_knl_Mailbox_Object__count__C
000013d0  ti_sysbios_knl_Mailbox_Object__table__C
000013d4  ti_sysbios_knl_Mailbox_maxTypeAlign__C
000013d8  ti_sysbios_knl_Queue_Object__count__C
000013dc  ti_sysbios_knl_Queue_Object__table__C
000013e0  ti_sysbios_knl_Swi_Object__count__C
000013e4  ti_sysbios_knl_Swi_Object__table__C
000013e8  ti_sysbios_knl_Swi_numPriorities__C
000013ec  ti_sysbios_knl_Task_Object__count__C
000013f0  ti_sysbios_knl_Task_Object__table__C
000013f4  ti_sysbios_knl_Task_allBlockedFunc__C
000013f8  ti_sysbios_knl_Task_defaultStackHeap__C
000013fc  ti_sysbios_knl_Task_defaultStackSize__C
00001400  ti_sysbios_knl_Task_numConstructedTasks__C
00001406  ti_sysbios_family_arm_cc26xx_Timer_Module__id__C
00001408  ti_sysbios_family_arm_cc26xx_TimestampProvider_useClockTimer__C
0000140a  ti_sysbios_family_arm_m3_Hwi_Module__id__C
0000140c  ti_sysbios_gates_GateHwi_Module__id__C
0000140e  ti_sysbios_gates_GateMutex_Module__id__C
00001410  ti_sysbios_heaps_HeapMem_Module__id__C
00001412  ti_sysbios_knl_Task_initStackFlag__C
00001414  ti_sysbios_knl_Clock_tickMode__C
00001418  xdc_runtime_Startup_firstFxns__C
00001420  xdc_runtime_Startup_lastFxns__C
00001428  xdc_runtime_Assert_E_assertFailed__C
0000142c  xdc_runtime_Error_E_memory__C
00001430  xdc_runtime_Error_policyFxn__C
00001434  xdc_runtime_IGateProvider_Interface__BASE__C
00001438  xdc_runtime_IHeap_Interface__BASE__C
0000143c  xdc_runtime_IModule_Interface__BASE__C
00001440  xdc_runtime_Main_Module__diagsEnabled__C
00001444  xdc_runtime_Main_Module__diagsIncluded__C
00001448  xdc_runtime_Main_Module__diagsMask__C
0000144c  xdc_runtime_Memory_defaultHeapInstance__C
00001450  xdc_runtime_Startup_execImpl__C
00001454  xdc_runtime_Startup_maxPasses__C
00001458  xdc_runtime_Startup_sfxnRts__C
0000145c  xdc_runtime_Startup_sfxnTab__C
00001460  xdc_runtime_Startup_startModsFxn__C
00001464  xdc_runtime_SysCallback_abortFxn__C
00001468  xdc_runtime_SysCallback_exitFxn__C
0000146c  xdc_runtime_System_abortFxn__C
00001470  xdc_runtime_System_exitFxn__C
00001474  xdc_runtime_System_maxAtexitHandlers__C
00001478  xdc_runtime_Text_charTab__C
0000147c  xdc_runtime_Text_nameEmpty__C
00001480  xdc_runtime_Text_nameStatic__C
00001484  xdc_runtime_Text_nameUnknown__C
00001488  xdc_runtime_Main_Module__id__C
0000148a  xdc_runtime_Memory_Module__id__C
0000148c  xdc_runtime_Text_charCnt__C
0000148e  xdc_runtime_Text_isLoaded__C
00001490  xdc_runtime_Error_policy__C
00001494  ti_sysbios_rom_ROM_AONRTCChannelEnable
00001498  ti_sysbios_rom_ROM_AONRTCCompareValueSet
0000149c  ti_sysbios_rom_ROM_AONRTCCurrentCompareValueGet
000014a0  ti_sysbios_rom_ROM_AONRTCEventClear
000014a4  ti_sysbios_rom_ROM_ti_sysbios_family_arm_cc26xx_Timer_getCount64__E
000014a8  ti_sysbios_rom_ROM_ti_sysbios_family_arm_cc26xx_Timer_getCurrentTick__E
000014ac  ti_sysbios_rom_ROM_ti_sysbios_family_arm_cc26xx_Timer_getMaxTicks__E
000014b0  ti_sysbios_rom_ROM_ti_sysbios_family_arm_cc26xx_Timer_initDevice__I
000014b4  ti_sysbios_rom_ROM_ti_sysbios_family_arm_cc26xx_Timer_setNextTick__E
000014b8  ti_sysbios_rom_ROM_ti_sysbios_family_arm_cc26xx_Timer_setThreshold__I
000014bc  ti_sysbios_rom_ROM_ti_sysbios_family_arm_cc26xx_Timer_start__E
000014c0  ti_sysbios_rom_ROM_ti_sysbios_family_arm_cc26xx_TimestampProvider_get32__E
000014c4  ti_sysbios_rom_ROM_xdc_runtime_Startup_getState__I
000014c8  ti_sysbios_rom_ROM_xdc_runtime_System_SupportProxy_abort__E
000014cc  ti_sysbios_rom_ROM_xdc_runtime_System_SupportProxy_exit__E
000014d0  ti_sysbios_gates_GateMutex_Instance_State_sem__O
000014d4  ti_sysbios_knl_Clock_Module_State_clockQ__O
000014d8  ti_sysbios_knl_Mailbox_Instance_State_dataQue__O
000014dc  ti_sysbios_knl_Mailbox_Instance_State_dataSem__O
000014e0  ti_sysbios_knl_Mailbox_Instance_State_freeQue__O
000014e4  ti_sysbios_knl_Mailbox_Instance_State_freeSem__O
000014e8  ti_sysbios_knl_Semaphore_Instance_State_pendQ__O
000014ec  ti_sysbios_knl_Task_Module_State_inactiveQ__O
00002965  startup_entry
00002df9  FHIE_parsePie
00003255  taskFxn
00003699  macWrapperAddDevice
00003a2d  macBuildHeader
00003db9  macRadioInit
00003db9  macRadioInitSubG
00004141  Sensor_process
00004839  MAC_MlmeResetReq
00004f0f  FHDATA_startEDFETimer
00004f11  PowerCC26XX_auxISR
0000521d  xdc_runtime_System_doPrint__I
00005529  macRadioTxGo
00005805  macPwrVote
00005ad9  FHAPI_getTxParams_old
00005d9d  FHIE_gen
0000605d  FHIE_genPieContent
00006315  osal_start_system
000065cd  MAC_McpsDataReq
0000684d  FHAPI_start
00006d2d  MAC_MlmeSetSecurityReq
00006f8d  FHAPI_completeRxCb
0000742d  NOROM_SysCtrlSetRechargeBeforePowerDown
00007669  Power_sleep
0000788d  macIncomingFrameSecurityMaterialRetrieval
00007aaf  FHUTIL_noAction
00007ab1  macBuildCommonReq
00007ecd  macApiAssociateReq
000080cd  FHAPI_sendData
000082bd  RF_open
000084a5  macStackEventLoop
00008679  FHIE_extractPie
00008845  macApiScanReq
00008a0d  MAC_MlmeGetSecurityReq
00008bcd  macRxBeaconCritical
00008d89  PIN_init
00008f41  RF_scheduleCmd
000090f5  macApiDataReq
000092a5  FHIE_parseCommonInformation
00009451  FHPIB_set
000095ed  FHNT_getEntry
00009785  macWrapperAddKeyInitFCtr
0000991d  macTxFrame
00009ab1  PowerCC26XX_doCalibrate
00009c41  MAC_MlmeSetReq
00009dc9  macBuildPayloadIes
00009f4d  macTxCompleteCallback
0000a0c9  NOROM_CRYPTOCcmInvAuthDecrypt
0000a3b5  NOROM_CRYPTOCcmAuthEncrypt
0000a525  macTxCsmaDelay
0000a689  FHAPI_completeTxCb
0000a7e5  UARTCC26XX_open
0000a941  macRadioCsmaTxCb
0000aa99  UARTCC26XX_hwiIntFxn
0000abe1  macApiDisassociateReq
0000b219  macAutoPoll
0000b34d  Sensor_sendMsg
0000b47d  macSendReceiveCmdSubG
0000b5ad  FHNT_purgeTimerIsrCb
0000b7f9  macApiWSAsyncReq
0000b91d  macAllocTxBuffer
0000ba3d  macApiSyncReq
0000bb5d  UARTCC26XX_read
0000beb1  Power_init
0000bfc5  macSetupRATChanCompare
0000c0d5  Ssf_networkUpdate
0000c1dd  FHNT_getRemoveEntryFromTemp
0000c2dd  RF_close
0000c3dd  macRatCb_B
0000c4dd  UARTCC26XX_write
0000c5d9  FHIE_genCommonInformation
0000c6d1  xdc_runtime_System_printfExtend__I
0000c7c9  RF_cancelCmd
0000c8bd  RF_getInfo
0000c9b1  macRadioTxPrepCsmaUnslotted
0000c9b1  macRadioTxPrepCsmaUnslottedSubG
0000caa5  macSetDefaultsByPhyID
0000cb99  FHMGR_bcTimerIsrCb
0000cc89  NOROM_RFCOverrideUpdate
0000cd79  NOROM_SetupTrimDevice
0000cd79  ti_sysbios_family_arm_cc26xx_Boot_trimDevice
0000ce69  RF_pendCmd
0000cf59  macRadioTxPrepCsmaSlottedSubG
0000d049  macDeviceReset
0000d135  macScanNextChan
0000d221  FHIE_parseHie
0000d309  FHAPI_getTxParams
0000d3ed  FHNT_addTempEUI
0000d4d1  PowerCC26XX_standbyPolicy
0000d779  RF_requestAccess
0000d859  macBeaconSetSched
0000d939  macIndirectSend
0000daf5  macCommStatusInd
0000dbcd  CryptoCC26XX_open
0000dca1  NOROM_RFCRfTrimRead
0000de49  macRadioLbtTxCb
0000df1d  macRatCb_A
0000dff1  MAC_CbackEvent
0000e0c1  macDataTxSend
0000e191  macScanRxBeacon
0000e261  macSendDataMsg
0000e331  NOROM_CRYPTOAesCbc
0000e3fd  NVOCOP_writeItem
0000e595  macOutgoingFrameKeyDescRetrieval
0000e729  macBuildHeaderIes
0000e7f1  macCcmStarTransform
0000e8b9  macDataTxEnqueue
0000e981  FHDATA_procASYNCReq
0000ea45  Jdllc_init
0000eb09  macSendFsCmd
0000ebcd  FHIE_getLen
0000ec8d  FHNT_AddDeviceCB
0000ed49  MAC_MlmeScanReq
0000ee05  Power_releaseDependency
0000eec1  macTxFrameIsr
0000f039  FHIE_getPieContentLen
0000f1a9  macBuildBeaconNotifyInd
0000f319  Power_setDependency
0000f3cd  RF_control
0000f52d  macTxChannelBusyCallback
0000f731  FHIE_genExcludedChannelRanges
0000f7db  _nop
0000f7dd  xdc_runtime_Text_putSite__E
0000f885  NOROM_CRYPTOAesEcb
0000fb15  macBeaconSyncLoss
0000fbb9  main
0000fc5d  osal_set_event
0000fda5  FHIE_getChannelPlan
0000fe45  Ssf_findBlackListIndex
0000fee5  __TI_auto_init
00010205  FHAPI_reset
000102a1  macRadioTxPrepLbt
0001033d  __aeabi_memcpy
0001033d  __aeabi_memcpy4
0001033d  __aeabi_memcpy8
0001033d  memcpy
000103d9  FHDATA_getPktFromQueue
00010471  FHMGR_updateRadioBCChannel
00010509  NVOCOP_deleteItem
000105a1  PIN_open
00010769  UARTCC26XX_swiIntFxn
00010801  macRxBeacon
00010899  macScanRxCoordRealign
00010931  ti_sysbios_knl_Clock_workFuncDynamic__E
000109c9  xdc_runtime_Text_putMod__E
00010a61  __aeabi_uldivmod
00010af7  macApiPwrOnReq
00010af9  FHNT_getNTIndexFromTempIndex
00010b8d  NOROM_CRYPTOAesLoadKey
00010cb5  macCbackForEvent
00010d49  macCcmDecrypt
00010ddd  macCcmStarInverseTransform
00010f91  ti_sysbios_family_arm_cc26xx_Timer_start__E
00011021  Jdllc_securityInit
000110ad  UARTCC26XX_close
000111c5  macCcmEncrypt
00011251  macDataTxComplete
000112dd  CryptoCC26XX_allocateKey
00011367  FHIE_extractHie
000113f1  NOROM_OSCHF_GetStartupTime
000113f1  PowerCC26XX_getXoscStartupTime
00011479  UARTCC26XX_writeCancel
00011501  macMcuBitReverse
00011589  osal_msg_receive
00011695  macRxAssocRsp
00011799  macRadioUpdateTxPower
00011819  macTimerCancel
00011919  txComplete
00011999  Board_Led_control
00011a15  NOROM_CRYPTOCcmInvAuthDecryptResultGet
00011b0d  macRadioUpdateChannelRx
00011b89  macScanStartTimer
00011c05  macTrackPeriodCallback
00011cfd  __aeabi_memclr
00011cfd  __aeabi_memclr4
00011cfd  __aeabi_memclr8
00011cff  __aeabi_memset
00011cff  __aeabi_memset4
00011cff  __aeabi_memset8
00011d05  memset
00011d77  macClientSwitchCb
00011d79  macBeaconCheckTxTime
00011e69  macRadioUpdateChannel
00011ee1  macTrackTimeoutCallback
00011f59  osal_pwrmgr_task_state
000120c1  macKeyDescriptorLookup
00012137  macMcuInit
00012139  FHUTIL_getCurBfio
000121ad  ICallPlatform_pwrUpdActivityCounter
00012221  RF_yield
00012295  macMcuOverflowSetCompare
00012309  macMcuOverflowSetPeriod
0001237d  FHAPI_startBS
000123ed  FHDH1CF_getBCChannelNum
000124cd  macTxAckReceivedCallback
000125ad  __aeabi_ldivmod
0001261b  macNoAction
0001261d  xdc_runtime_System_formatNum__I
0001268d  FHNT_putEntry
000126f9  PowerCC26XX_initiateCalibration
00012765  RF_ratDisableChannel
0001283d  macDisassocComplete
000128a9  macExecute
00012915  macSendMsg
00012981  FHDATA_purgePktFromQueue
000129e9  NOROM_SysCtrlAdjustRechargeAfterPowerDown
00012a51  NOROM_SysCtrl_DCDC_VoltageConditionalControl
00012ab9  UARTCC26XX_readCancel
00012b21  __TI_decompress_lzss
00012c59  macRxOn
00012df9  NOROM_OSCHF_AttemptToSwitchToXosc
00012e5d  NOROM_SetupGetTrimForAnabypassValue1
00012f89  macAssocDataRxInd
00012fed  macRxCoordRealign
00013051  macRxDisassoc
000130b5  macLowLevelReset
000130b5  macSymbolTimerInit
000130b5  macSymbolTimerReset
0001317d  macBuildWSAsyncMsg
000131df  __aeabi_idiv0
000131df  __aeabi_ldiv0
000131e1  FHIE_getCcaSfdTime
00013241  NOROM_OSCClockSourceSet
000132a1  PowerCC26XX_calibrate
00013361  RF_getCurrentTime
000133c1  Ssf_getNetworkInfo
00013421  UARTCC26XX_control
00013481  macRadioTxBackoffBoundary
000134e1  macRxHaltCleanup
00013541  macScanComplete
000135a1  osal_msg_send
00013601  xdc_runtime_Text_putLab__E
00013661  FHMGR_updateRadioUCChannel
000136bf  ti_sysbios_BIOS_linkedWithIncorrectBootLibrary__E
000136c1  Jdllc_addSecDevice
0001371d  PowerCC26XX_RCOSC_clockFunc
00013831  macPollDataRxInd
0001388d  xdc_runtime_Startup_getState__I
000138e9  FHDATA_requeuePkt
00013941  FHNT_DelDeviceCB
00013999  FHUTIL_getBitCounts
000139f1  MAC_ResumeReq
00013a49  PIN_remove
00013aa1  RF_TxPowerTable_findValue
00013ba9  macRxOffRequest
00013c01  macTimerAddTimer
00013c59  macTimerUpdateSymbolTimer
00013cb1  macFrameDuration
00013cb1  macFrameDurationSubG
00013d07  CryptoCC26XX_close
00013d5b  ti_sysbios_BIOS_nullFunc__I
00013d5d  FHSM_event
00013db1  UartPrintf_flush
00013e05  macApiPollReq
00013e59  macSyncTimeoutCallback
00013ead  macTrackStartCallback
00013f01  macUpdatePayloadIEPtr
00013fa9  FHIE_genExcludedChannelMask
00013ffb  FHIE_getSubPie
0001404d  FHMGR_macStartFHTimer
0001409d  FHMGR_ucTimerIsrCb
000140ed  FHNT_getEUI
0001413d  NOROM_CRYPTOCcmAuthEncryptResultGet
0001427d  macAssocDataReqComplete
000142cd  macRadioSetChannel
0001431d  macSymbolTimerSetRollover
000143bd  FHDH1CF_mapChIdxChannel
0001440b  ti_sysbios_knl_Clock_triggerFunc__I
0001440d  FHPIB_get
00014459  copy_in
000144f1  macGetRadioTxPowerReg
0001453d  macRadioWakeupCb
00014589  macRxNokIsr
00014621  macTxAckNotReceivedCallback
0001466d  icall_slimMsgParser
000146b7  ti_sysbios_rom_cortexm_cc13xx_CC13xx_badRomRevision__E
000146b9  Board_Lcd_writeStringValue
00014701  ClockP_construct
00014749  Jdllc_sendDisassociationRequest
00014791  PIN_setOutputEnable
000147d9  Ssf_configurationUpdate
00014821  Timer_construct
00014869  Util_itoa
000148b1  macBeaconStartFrameResponseTimer
000148f9  macSetupFsCmd
00014989  FHDH1CF_getCh
000149cf  FHIE_getCommonInformationLen
00014a15  FHAPI_getRemDT
00014a59  MAC_MlmeGetReq
00014a9d  RingBuf_put
00014ae1  ResetISR
00014ae1  _c_int00
00014bad  macAssocDataReq
00014bf1  macPollDataReqComplete
00014c35  macSetupReceiveCmd
00014c79  macStopCmd
00014cbd  mac_msg_deallocate
00014d45  xdc_runtime_Text_xprintf__I
00014dcb  xdc_runtime_SysCallback_defaultAbort
00014dcd  FHDH1CF_hashword
00014e0d  FHNT_delTempIndex
00014e4d  FHUTIL_getCurUfsi
00014e8d  HalTRNG_GetTRNG
00014f8d  NOROM_ChipInfo_GetHwRevision
00014fcd  NVOCOP_initNV
0001504d  RF_setTxPower
0001508d  UART_init
000150cd  UART_open
0001514d  macPollFrameResponseTimeout
0001518d  __aeabi_uidiv
0001518d  __aeabi_uidivmod
0001520d  ti_sysbios_family_arm_cc26xx_Timer_setThreshold__I
0001524d  HwiP_construct
0001528b  RingBuf_get
000152c9  FHMGR_updateHopping
00015305  ICallPlatform_pwrConfigACAction
000153b9  NOROM_OSC_HPOSCRelativeFrequencyOffsetGet
000153f5  NOROM_RFCSynthPowerDown
00015431  NVOCOP_compactNV
0001546d  PowerCC26XX_isStableXOSC_HF
000154e5  SwiP_construct
0001555d  macCheckPhyRate
00015599  macRxDisable
000155d5  macStartFrameResponseTimer
00015611  macSymbolTimerSetTrigger
0001564d  osal_msg_extract
00015689  ti_sysbios_family_arm_m3_Hwi_construct2__E
000156c5  FHDH1CF_getChannelNum
000156ff  Util_bufferUint32
00015739  FHAPI_stopAsync
00015771  HalTRNG_InitTRNG
000157e1  Main_assertHandler
00015819  NVOCOP_readItem
00015851  PIN_setOutputValue
00015931  macAssocFailed
00015969  macBeaconRequeue
000159a1  macSetUserConfig
000159d9  macSymbolTimerCount
000159d9  macTimerGetTime
00015a11  macSymbolTimerRealignSubG
00015a49  osal_msg_dequeue
00015ab9  ti_sysbios_family_arm_cc26xx_Timer_getCurrentTick__E
00015b29  FHIE_getPie
00015b5f  xdc_runtime_SysCallback_defaultExit
00015bc9  NOROM_DDI32RegWrite
00015bfd  NOROM_OSCHF_SwitchToRcOscTurnOffXosc
00015c31  PIN_setConfig
00015c65  Power_releaseConstraint
00015c99  RF_powerConstraintRelease
00015d69  macAssociateCnf
00015d9d  macBeaconStopTrack
00015dd1  macDataRxInd
00015e05  macStartBroadcastPendTimer
00015e39  macTimerRecalcUnaligned
00015e6d  macTxDecrypt
00015ea1  macTxUpdateIE
00015f09  osal_msg_enqueue
00015f3d  ti_sysbios_family_arm_cc26xx_Timer_initDevice__I
00015f71  ti_sysbios_knl_Swi_setPri__E
00015fa5  FHIE_getHie
00016009  macScanCnfInit
0001603b  ti_sysbios_family_arm_cc26xx_Timer_setNextTick__E
0001606d  FHAPI_SFDRxCb
0001609d  FSM_transaction_debug
000160cd  HalFlashRead
000160fd  ICallPlatform_pwrRegisterNotify
0001612d  NOROM_CRYPTOAesCbcStatus
0001612d  NOROM_CRYPTOAesEcbStatus
0001615d  NOROM_CRYPTOCcmAuthEncryptStatus
0001618d  NOROM_CRYPTOCcmInvAuthDecryptStatus
000161bd  NOROM_ChipInfo_GetChipType
000161ed  NOROM_SetupSetAonRtcSubSecInc
0001621d  Power_setConstraint
0001624d  Ssf_setPollClock
0001627d  Ssf_setReadingClock
000162ad  Ssf_setScanBackoffClock
0001630d  macBcTimerHandler
0001633d  macMRFSKGetPhyDesc
0001639d  macTimerSetRollover
000163cd  osal_alien2proxy
0001642d  ti_sysbios_BIOS_atExitFunc__I
0001645d  ti_sysbios_BIOS_startFunc__I
00016545  FHIE_getExcludedChannelControl
00016571  NOROM_OSCClockSourceGet
0001659d  NOROM_RFCCpePatchReset
000165c9  PINCC26XX_setMux
0001664d  SemaphoreP_constructBinary
00016679  Ssf_clearNetworkInfo
000166a5  UartPrintf_putch
000166fd  macPibReset
00016729  macRadioSetPanCoordinator
00016781  sAddrCmp
000167ad  ti_sysbios_knl_Clock_getTicksUntilInterrupt__E
000167d9  xdc_runtime_Text_printVisFxn__I
00016805  ti_sysbios_knl_Clock_getTimeout__E
0001682f  xdc_runtime_System_putchar__I
00016859  CryptoCC26XX_releaseKey
00016881  FHMGR_macCancelFHTimer
000168d1  MAC_MlmeGetPointerSecurityReq
000168f9  NOROM_AONBatMonTemperatureGetDegC
00016921  NOROM_RFCDoorbellSendTo
00016949  Power_registerNotify
00016971  RF_getTxPower
00016999  SafeHapiVoid
00016a11  macApiPending
00016a39  macBeaconCheckSched
00016a61  macCoordAddrCmp
00016a89  macGetCoordAddress
00016ab1  macRadioStopScan
00016ad9  macTxRequestCsmaRtcDelay
00016b01  osal_mem_alloc
00016b29  osal_next_timeout
00016b51  FHUTIL_getMaxChannels
00016b77  FHUTIL_getTxUfsi
00016bc3  xdc_runtime_System_vprintf__E
00016be9  CryptoCC26XX_hwiIntFxn
00016c0d  FHAPI_getTxChHoppingFunc
00016c31  FHPIB_getLen
00016c79  List_remove
00016ce5  macAssocFrameResponseTimeout
00016d09  macBeaconReset
00016d2d  macGetRadioState
00016d51  macRadioTxRequestTxAck
00016d75  macRxSoftDisable
00016d99  macTimerAligned
00016dbd  memcmp
00016de1  osal_msg_allocate
00016e05  ti_sysbios_BIOS_registerRTSLock__I
00016e29  ti_sysbios_BIOS_removeRTSLock__I
00016e4d  ti_sysbios_family_arm_cc26xx_Timer_getMaxTicks__E
00016e71  List_get
00016e93  List_insert
00016eb5  List_put
00016ed7  List_putHead
00016ef9  FHDATA_updateCCA
00016f19  FHUTIL_updateUcNumChannels
00016f39  HalFlashGetAddress
00016f59  osal_mem_free
000170b9  MAC_GetPHYParamReq
000170d9  NOROM_RFCAdi3VcoLdoVoltageMode
000170f9  PowerCC26XX_schedulerDisable
00017119  PowerCC26XX_schedulerRestore
00017139  Power_unregisterNotify
000171b9  macDataRxMemAlloc
000171d9  macDataSend
000171f9  macRadioSwInit
00017219  macRxOff
00017239  macRxSoftEnable
00017259  osal_memcmp
00017279  osal_msg_push
000172b9  ti_sysbios_BIOS_rtsLock__I
000172d9  ti_sysbios_family_arm_cc26xx_Timer_dynamicStub__E
000172f9  ti_sysbios_knl_Clock_stop__E
00017319  xdc_runtime_Registry_findById__E
00017339  PIN_close
00017357  Power_getTransitionLatency
00017375  macPibIndex
00017393  macScanFailedInProgress
000173b1  macTimerRemoveTimer
000173cf  FHAPI_setStateCb
000173eb  FHPIB_getIndex
00017441  NOROM_ChipInfo_GetChipFamily
0001745d  NOROM_FlashProgram
00017479  NOROM_FlashSectorErase
000174e9  RF_getRssi
00017505  RF_powerConstraintSet
00017521  Ssf_initializeReadingClock
0001753d  Ssf_stateChangeUpdate
00017575  macConflictSyncLossInd
00017591  macMcuTimerCapture
000175ad  macPollRxDisassoc
000175c9  macRadioSetRE
000175e5  macRxAckTxDoneCallback
000175e5  macTxAckIsr
0001761d  macSymbolTimerSetTriggerRollover
00017639  macTimer
000176c5  sAddrExtCmp
000176e1  ti_sysbios_knl_Swi_construct2__E
000176fd  copyApiMacAddrToMacAddr
00017717  macCheckPhyMode
00017731  macLowLevelDiags
0001774b  xdc_runtime_System_printf__E
00017765  ApiMac_mlmeSetReqBool
0001777d  ApiMac_mlmeSetReqUint16
00017795  ApiMac_mlmeSetReqUint8
000177ad  FHAPI_getBitCount
000177c5  HalAesInit
000177dd  ICallPlatform_pwrDispense
000177f5  ICallPlatform_pwrRequire
0001780d  NOROM_AONRTCCurrentCompareValueGet
00017825  NOROM_ChipInfo_GetPackageType
0001783d  NOROM_OSCHF_TurnOnXosc
00017855  NOROM_RFCCpeIntGetAndClear
0001786d  Power_idleFunc
000178cd  UARTCC26XX_init
000178e5  UART_Params_init
000178fd  _args_main
0001795d  macDataTxTimeAvailable
00017975  macGetMyAddrMode
0001798d  macPollCnf
000179a5  macPollRxAssocRsp
000179bd  macRadioSetIEEEAddr
000179d5  macRadioSetShortAddr
000179ed  macRxOnRequest
00017a05  macStartResponseTimer
00017a1d  macStateIdleOrPolling
00017a35  macSymbolTimerRestore
00017a4d  macTimerInit
00017a65  macTxAbortIsr
00017a7d  macWrapper8ByteUnused
00017a95  osal_memcpy
00017ac5  __aeabi_lmul
00017add  ti_sysbios_BIOS_rtsUnlock__I
00017af5  ti_sysbios_knl_Swi_or__E
00017b0d  ti_sysbios_rom_cortexm_cc13xx_CC13xx_checkRevision__E
00017b3b  Util_clearEvent
00017b51  Util_parseUint32
00017b67  Util_setEvent
00017b7d  ti_sysbios_BIOS_exitFunc__I
00017b95  ApiMac_randomByte
00017ba9  FHPIB_reset
00017bbd  Jdllc_setPollRate
00017bd1  List_clearList
00017be5  MAC_CbackQueryRetransmit
00017bf9  NOROM_AONRTCCurrent64BitValueGet
00017c0d  PIN_getInputValue
00017c21  RF_Params_init
00017c35  RF_RatConfigCompare_init
00017c5d  RF_ratCompare
00017cc1  macMainReserve
00017cd5  macMcuOverflowCapture
00017ce9  macRadioSetPanID
00017cfd  macStateScanning
00017d11  macWSAsyncCnf
00017d39  sAddrCpy
00017d61  strlen
00017d89  ti_sysbios_knl_Clock_doTick__I
00017d9d  Board_Lcd_writeString
00017db1  FHNT_assessTime
00017dc3  FHUTIL_getElapsedTime
00017dd5  RF_getCmdOp
00017de7  RingBuf_construct
00017df9  SemaphoreP_pend
00017e0b  macRadioSetTxPower
00017e1d  macSecurityPibIndex
00017e2f  osal_msg_deallocate
00017e41  xdc_runtime_Startup_exec__I
00017e55  ApiMac_mlmeGetReqArray
00017e65  ApiMac_mlmeGetReqUint16
00017e75  ApiMac_mlmeGetReqUint32
00017e85  ApiMac_mlmeSetReqArray
00017e95  ApiMac_mlmeSetSecurityReqStruct
00017ea5  ClockP_isActive
00017eb5  HAL_APPASRT_callAssrtHanlder
00017ec5  HwiP_Params_init
00017ed5  ICallPlatform_pwrGetXOSCStartupTime
00017ee5  NOROM_RFCHwIntGetAndClear
00017ef5  NOROM_RFCRfTrimSet
00017f05  PINCC26XX_getPinCount
00017f35  SwiP_Params_init
00017f45  Timer_isActive
00017f55  macAssocRxDisassoc
00017f65  macRadioPowerCtrlFEM
00017f75  macRxEnable
00017f85  macSetEvent16
00017f95  macSetEvent
00017fb5  ti_sysbios_family_arm_m3_Hwi_post__E
00017fb5  ti_sysbios_hal_Hwi_HwiProxy_post__E
00017fb5  ti_sysbios_hal_Hwi_post__E
00017fe5  xdc_runtime_SysCallback_putch__E
00017fe5  xdc_runtime_System_SupportProxy_putch__E
00017ff5  xdc_runtime_SysCallback_ready__E
00017ff5  xdc_runtime_System_SupportProxy_ready__E
00018005  xdc_runtime_System_vsnprintf__E
00018015  FHMGR_macGetElapsedFHTime
00018023  ICallPlatform_pwrGetTransitionState
00018031  ICallPlatform_pwrIsStableXOSCHF
0001803f  NOROM_VIMSModeGet
0001804d  __TI_decompress_none
00018077  ti_sysbios_family_arm_cc26xx_TimestampProvider_get32__E
00018077  xdc_runtime_Timestamp_SupportProxy_get32__E__mangled__
00018085  CryptoCC26XX_init
00018091  NOROM_CPUcpsid
0001809d  NOROM_CPUcpsie
000180a9  NOROM_OSC_HPOSCRelativeFrequencyOffsetToRFCoreFormatConvert
000180b5  PIN_registerIntCb
000180c1  Power_getConstraintMask
000180cd  Power_getDependencyCount
000180d9  Power_getTransitionState
000180e5  RF_powerConstraintGet
000180f1  Util_bufferUint16
000180fd  Util_parseUint16
00018109  _register_lock
00018115  _register_unlock
0001812d  __TI_zero_init
00018139  macDataRxMemFree
00018145  macIsCsmOperational
00018151  macRadioTxCancelAckTimeout
0001815d  macRadioTxCancelTxAck
00018169  osal_self
00018175  ti_sysbios_BIOS_getThreadType__E
00018181  ti_sysbios_hal_Hwi_Params__init__S
0001818d  ti_sysbios_knl_Swi_getTrigger__E
00018199  xdc_runtime_Startup_reset__I
000181a5  xdc_runtime_Startup_rtsDone__E
000181b1  HalFlashWrite
000181bb  ICallPlatform_pwrSwitchXOSCHF
000181c5  MAC_MlmeAssociateReq
000181cf  MAC_MlmeDisassociateReq
000181d9  UART_write
000181e3  Util_copyExtAddr
000181f7  MAC_RandomByte
000181f7  macMcuRandomByte
000181f7  macRadioRandomByte
00018201  CryptoCC26XX_Params_init
00018209  MAC_MlmePollReq
00018211  MAC_MlmeSyncReq
00018219  RF_RatConfigOutput_init
00018221  RF_ScheduleCmdParams_init
00018229  RF_flushCmd
00018231  Timer_setTimeout
00018239  Util_breakUint32
00018249  macCsmaTimerExpiry
00018261  xdc_runtime_Text_visitRope__I
00018269  ClockP_Params_init
0001826f  CryptoCC26XX_transact
00018275  CryptoCC26XX_transactCallback
0001827b  CryptoCC26XX_transactPolling
00018281  FHDATA_asyncMinTxOffTimerCb
00018287  FHDATA_procEDFEReq
0001828d  FHDATA_startEDFEReq
00018293  FHMGR_BCTimerEventUpd
00018299  FHMGR_pendBcChUpdate
0001829f  FHMGR_pendUcChUpdate
000182a5  Main_excHandler
000182ab  NOROM_CPUdelay
000182b7  RF_runDirectCmd
000182bd  RF_runImmediateCmd
000182c3  Ssf_displayError
000182c9  UARTCC26XX_readPolling
000182cf  UARTCC26XX_writePolling
000182d5  halAssertHandler
000182db  macApiBadState
000182e1  macBroadcastPendCallback
000182e7  macHalAssertHandler
000182ed  macSecCpy
000182f3  sAddrExtCpy
000182f9  ti_sysbios_family_arm_m3_Hwi_setFunc__E
00018303  ClockP_destruct
00018307  ClockP_getCpuFreq
0001830b  ClockP_getTimeout
0001830f  ClockP_setTimeout
00018313  ClockP_start
00018317  ClockP_stop
0001831b  CryptoCC26XX_Transac_init
0001831f  FHUTIL_assert
00018323  FHUTIL_elapsedTime
00018327  HwiP_destruct
0001832b  HwiP_disable
0001832f  HwiP_enableInterrupt
00018333  HwiP_post
00018337  HwiP_setFunc
0001833b  HwiP_setPriority
0001833f  PowerCC26XX_switchXOSC_HF
00018343  SemaphoreP_destruct
00018347  SemaphoreP_post
0001834b  SwiP_destruct
0001834f  SwiP_disable
00018353  SwiP_getTrigger
00018357  SwiP_or
0001835b  SwiP_setPriority
0001835f  Timer_start
00018363  Timer_stop
0001836b  macPanConflictComplete
0001836f  macRadioComputeLQI
0001837b  osal_memset
0001837f  osal_strlen
00018387  ti_sysbios_family_arm_cc26xx_Timer_getCount64__E
0001838b  ti_sysbios_knl_Clock_isActive__E
0001838f  xdc_runtime_SysCallback_defaultReady
00018393  xdc_runtime_System_printf_va__F
00018e6c  rfDriverTable
00018ed4  txPowerTable_subg_CC1310
00018f29  txPowerTable_subg_CC1350
00018f79  loDivider
00018f7c  cryptoDriverTable
00018fa4  rfPatchTable
00018fb4  txPwrTbl
00018fc0  __TI_static_base__
000193e0  __TI_Handler_Table_Base
000193ec  __TI_Handler_Table_Limit
00019420  __TI_CINIT_Base
00019480  __TI_CINIT_Limit
0001e000  NV_FLASH
0001f1e1  icall_directAPI
0001f275  ICall_heapMalloc
0001f365  ICall_createRemoteTasks
0001f7b1  ICall_searchServiceEntity
0001f875  ICall_heapFree
0001f983  ICall_enterCSImpl
0001f9d7  ICall_leaveCSImpl
0001ffa8  __ccfg
1001a001  ti_sysbios_knl_Semaphore_pend__E
1001a0cd  ti_sysbios_knl_Mailbox_Instance_init__E
1001a195  ti_sysbios_heaps_HeapMem_alloc__E
1001a259  ti_sysbios_knl_Task_Instance_init__E
1001a315  ti_sysbios_family_arm_m3_Hwi_postInit__I
1001a3c5  ti_sysbios_family_arm_m3_Hwi_Instance_init__E
1001a465  ti_sysbios_family_arm_cc26xx_Timer_periodicStub__E
1001a4f9  ti_sysbios_knl_Task_Instance_finalize__E
1001a58d  ti_sysbios_knl_Mailbox_post__E
1001a611  ti_sysbios_knl_Task_postInit__I
1001a695  ti_sysbios_family_arm_m3_Hwi_initNVIC__E
1001a715  ti_sysbios_knl_Clock_startI__E
1001a791  ti_sysbios_heaps_HeapMem_free__E
1001a809  ti_sysbios_knl_Clock_walkQueueDynamic__E
1001a881  ti_sysbios_knl_Clock_workFunc__E
1001a8f9  ti_sysbios_knl_Mailbox_Instance_finalize__E
1001a969  ti_sysbios_knl_Mailbox_pend__E
1001a9d9  ti_sysbios_knl_Task_sleep__E
1001aa49  ti_sysbios_family_arm_m3_Hwi_dispatchC__I
1001aab1  ti_sysbios_family_arm_m3_Hwi_Object__create__S
1001ab15  ti_sysbios_family_arm_m3_Hwi_create
1001ab79  ti_sysbios_hal_Hwi_create
1001abdd  ti_sysbios_knl_Mailbox_create
1001ac41  ti_sysbios_knl_Semaphore_post__E
1001aca5  ti_sysbios_knl_Swi_Instance_init__E
1001ad05  ti_sysbios_knl_Swi_create
1001ad61  ti_sysbios_knl_Swi_restoreHwi__E
1001adbd  ti_sysbios_knl_Task_Module_startup__E
1001ae19  ti_sysbios_knl_Task_create
1001ae75  ti_sysbios_knl_Task_startCore__E
1001aed1  ti_sysbios_family_arm_m3_Hwi_Instance_finalize__E
1001af29  ti_sysbios_family_arm_m3_Hwi_construct
1001af81  ti_sysbios_knl_Mailbox_construct
1001afd9  ti_sysbios_knl_Swi_run__I
1001b031  ti_sysbios_knl_Swi_schedule__I
1001b085  ti_sysbios_knl_Swi_construct
1001b0d5  ti_sysbios_knl_Swi_runLoop__I
1001b125  ti_sysbios_knl_Task_construct
1001b175  ti_sysbios_knl_Task_schedule__I
1001b1c1  ti_sysbios_family_arm_m3_Hwi_Module_startup__E
1001b209  ti_sysbios_heaps_HeapMem_getStats__E
1001b251  ti_sysbios_family_arm_m3_Hwi_disableInterrupt__E
1001b251  ti_sysbios_hal_Hwi_HwiProxy_disableInterrupt__E__mangled__
1001b295  ti_sysbios_family_arm_m3_Hwi_enableInterrupt__E
1001b295  ti_sysbios_hal_Hwi_HwiProxy_enableInterrupt__E__mangled__
1001b2d9  ti_sysbios_knl_Mailbox_Module_startup__E
1001b31d  ti_sysbios_knl_Swi_post__E
1001b361  ti_sysbios_knl_Task_allBlockedFunction__I
1001b3a5  ti_sysbios_knl_Task_yield__E
1001b3e9  ti_sysbios_knl_Clock_create
1001b425  ti_sysbios_knl_Task_exit__E
1001b45f  ti_sysbios_gates_GateHwi_Instance_init__E
1001b461  ti_sysbios_family_arm_m3_Hwi_getStackInfo__E
1001b461  ti_sysbios_hal_Hwi_HwiProxy_getStackInfo__E__mangled__
1001b499  ti_sysbios_family_arm_m3_TaskSupport_start__E
1001b499  ti_sysbios_knl_Task_SupportProxy_start__E__mangled__
1001b4d1  ti_sysbios_heaps_HeapMem_Instance_init__E
1001b509  ti_sysbios_knl_Clock_Instance_init__E
1001b541  ti_sysbios_heaps_HeapMem_init__I
1001b575  ti_sysbios_knl_Clock_construct
1001b5a9  ti_sysbios_knl_Semaphore_create
1001b5dd  SwiP_restore
1001b5dd  ti_sysbios_knl_Swi_restore__E
1001b611  ti_sysbios_knl_Task_blockI__E
1001b645  ti_sysbios_gates_GateMutex_Object__create__S
1001b675  ti_sysbios_gates_GateMutex_create
1001b6a5  ti_sysbios_gates_GateMutex_enter__E
1001b6d5  ClockP_getSystemTicks
1001b6d5  ti_sysbios_knl_Clock_getTicks__E
1001b705  ti_sysbios_knl_Semaphore_construct
1001b735  ti_sysbios_knl_Task_processVitalTaskFlag__I
1001b765  ti_sysbios_family_arm_cc26xx_Timer_postInit__I
1001b791  ti_sysbios_family_arm_cc26xx_Timer_startup__E
1001b791  ti_sysbios_knl_Clock_TimerProxy_startup__E
1001b791  ti_sysbios_knl_Clock_TimerProxy_startup__E__mangled__
1001b7bd  ti_sysbios_family_arm_m3_Hwi_Object__get__S
1001b7e9  ti_sysbios_gates_GateMutex_construct
1001b815  ti_sysbios_hal_Hwi_initStack
1001b841  ti_sysbios_heaps_HeapMem_Object__create__S
1001b86d  ti_sysbios_heaps_HeapMem_Object__get__S
1001b899  ti_sysbios_knl_Mailbox_Object__get__S
1001b8c5  ti_sysbios_knl_Mailbox_postInit__I
1001b8f1  ti_sysbios_knl_Queue_construct
1001b91d  ti_sysbios_knl_Queue_create
1001b949  ti_sysbios_knl_Semaphore_pendTimeout__I
1001b975  ti_sysbios_knl_Swi_Object__get__S
1001b9a1  ti_sysbios_knl_Task_unblockI__E
1001b9cd  ti_sysbios_family_arm_cc26xx_TimestampProvider_get64__E
1001b9cd  xdc_runtime_Timestamp_SupportProxy_get64__E
1001b9cd  xdc_runtime_Timestamp_SupportProxy_get64__E__mangled__
1001b9cd  xdc_runtime_Timestamp_get64__E
1001b9cd  xdc_runtime_Timestamp_get64__E
1001b9f5  ti_sysbios_hal_Hwi_Instance_init__E
1001ba1d  ti_sysbios_knl_Clock_addI__E
1001ba45  ti_sysbios_knl_Task_restore__E
1001ba6d  ti_sysbios_family_arm_cc26xx_Timer_Module_startup__E
1001ba91  ti_sysbios_gates_GateHwi_Object__create__S
1001bab5  ti_sysbios_BIOS_RtsGateProxy_Object__delete__S
1001bab5  ti_sysbios_gates_GateMutex_Object__delete__S
1001bab5  ti_sysbios_heaps_HeapMem_Module_GateProxy_Object__delete__S
1001bad9  ti_sysbios_knl_Clock_Object__delete__S
1001bafd  ti_sysbios_knl_Semaphore_Instance_init__E
1001bb21  ti_sysbios_knl_Semaphore_Object__delete__S
1001bb45  ti_sysbios_family_arm_cc26xx_Timer_Module__startupDone__S
1001bb45  ti_sysbios_knl_Clock_TimerProxy_Module__startupDone__S__mangled__
1001bb65  ti_sysbios_family_arm_cc26xx_TimestampProvider_Module_startup__E
1001bb85  ti_sysbios_family_arm_m3_Hwi_Module__startupDone__S
1001bb85  ti_sysbios_hal_Hwi_HwiProxy_Module__startupDone__S__mangled__
1001bba5  ti_sysbios_family_arm_m3_Hwi_Object__delete__S
1001bba5  ti_sysbios_hal_Hwi_HwiProxy_Object__delete__S
1001bbc5  ti_sysbios_family_arm_m3_Hwi_excHandler__I
1001bbe5  ti_sysbios_gates_GateHwi_Handle__label__S
1001bbe5  xdc_runtime_Main_Module_GateProxy_Handle__label__S
1001bbe5  xdc_runtime_System_Module_GateProxy_Handle__label__S
1001bbe5  xdc_runtime_System_Module_GateProxy_Handle__label__S__mangled__
1001bc05  ti_sysbios_gates_GateHwi_Object__delete__S
1001bc05  xdc_runtime_System_Module_GateProxy_Object__delete__S
1001bc25  ti_sysbios_BIOS_RtsGateProxy_Handle__label__S
1001bc25  ti_sysbios_BIOS_RtsGateProxy_Handle__label__S__mangled__
1001bc25  ti_sysbios_gates_GateMutex_Handle__label__S
1001bc25  ti_sysbios_heaps_HeapMem_Module_GateProxy_Handle__label__S
1001bc25  ti_sysbios_heaps_HeapMem_Module_GateProxy_Handle__label__S__mangled__
1001bc45  ti_sysbios_gates_GateMutex_Object__destruct__S
1001bc65  ti_sysbios_hal_Hwi_Object__delete__S
1001bc85  ti_sysbios_heaps_HeapMem_Handle__label__S
1001bc85  xdc_runtime_Memory_HeapProxy_Handle__label__S
1001bc85  xdc_runtime_Memory_HeapProxy_Handle__label__S__mangled__
1001bca5  ti_sysbios_heaps_HeapMem_Object__delete__S
1001bca5  xdc_runtime_Memory_HeapProxy_Object__delete__S
1001bcc5  ti_sysbios_knl_Clock_Module_startup__E
1001bce5  ti_sysbios_knl_Clock_Object__destruct__S
1001bd05  ti_sysbios_knl_Idle_run__E
1001bd25  ti_sysbios_knl_Mailbox_Object__delete__S
1001bd45  ti_sysbios_knl_Queue_Object__delete__S
1001bd65  ti_sysbios_knl_Queue_Object__get__S
1001bd85  ti_sysbios_knl_Semaphore_Object__destruct__S
1001bda5  ti_sysbios_knl_Swi_Object__delete__S
1001bdc5  ti_sysbios_knl_Task_Object__delete__S
1001bde5  ti_sysbios_knl_Task_Object__get__S
1001be05  ti_sysbios_knl_Task_enter__I
1001be25  ti_sysbios_knl_Task_restoreHwi__E
1001be45  ti_sysbios_hal_Hwi_HwiProxy_create
1001be63  ti_sysbios_knl_Clock_logTick__E
1001be65  ti_sysbios_family_arm_m3_Hwi_Object__destruct__S
1001be81  ti_sysbios_family_arm_m3_Hwi_setPriority__E
1001be9d  ti_sysbios_gates_GateMutex_Instance_init__E
1001beb9  ti_sysbios_knl_Clock_scheduleNextTick__E
1001bed5  ti_sysbios_knl_Mailbox_Object__destruct__S
1001bef1  ti_sysbios_knl_Queue_Object__destruct__S
1001bf0d  ti_sysbios_knl_Queue_get__E
1001bf29  ti_sysbios_knl_Queue_put__E
1001bf45  ti_sysbios_knl_Swi_Object__destruct__S
1001bf61  ti_sysbios_knl_Task_Object__destruct__S
1001bf7d  ti_sysbios_knl_Task_sleepTimeout__I
1001bf97  ti_sysbios_knl_Swi_Instance_finalize__E
1001bf99  ti_sysbios_gates_GateMutex_leave__E
1001bfb1  ti_sysbios_knl_Task_unblock__E
1001bfc9  ti_sysbios_knl_Clock_Instance_finalize__E
1001bfdf  ti_sysbios_knl_Clock_start__E
1001bff5  ti_sysbios_BIOS_getCpuFreq__E
1001c009  ti_sysbios_family_arm_m3_Hwi_switchFromBootStack__E
1001c009  ti_sysbios_hal_Hwi_HwiProxy_switchFromBootStack__E__mangled__
1001c01d  ti_sysbios_hal_Hwi_Module_startup__E
1001c031  ti_sysbios_BIOS_exit__E
1001c041  ti_sysbios_BIOS_setThreadType__E
1001c051  ti_sysbios_BIOS_start__E
1001c061  ti_sysbios_family_arm_m3_Hwi_plug__E
1001c071  ti_sysbios_gates_GateMutex_Instance_finalize__E
1001c081  ti_sysbios_hal_Hwi_HwiProxy_Object__create__S
1001c091  ti_sysbios_knl_Clock_TimerProxy_getCurrentTick__E
1001c0a1  ti_sysbios_knl_Clock_TimerProxy_getMaxTicks__E
1001c0b1  ti_sysbios_knl_Clock_TimerProxy_setNextTick__E
1001c0c1  ti_sysbios_knl_Semaphore_Instance_finalize__E
1001c0d1  ti_sysbios_knl_Swi_disable__E
1001c0e1  ti_sysbios_knl_Swi_enabled__E
1001c0f1  ti_sysbios_knl_Task_disable__E
1001c101  ti_sysbios_heaps_HeapMem_restore__E
1001c10f  ti_sysbios_knl_Queue_empty__E
1001c11d  ti_sysbios_knl_Queue_remove__E
1001c12b  ti_sysbios_family_arm_cc26xx_TimestampProvider_getFreq__E
1001c12b  xdc_runtime_Timestamp_SupportProxy_getFreq__E
1001c12b  xdc_runtime_Timestamp_SupportProxy_getFreq__E__mangled__
1001c12b  xdc_runtime_Timestamp_getFreq__E
1001c12b  xdc_runtime_Timestamp_getFreq__E
1001c139  ti_sysbios_family_arm_m3_Hwi_Params__init__S
1001c139  ti_sysbios_hal_Hwi_HwiProxy_Params__init__S
1001c139  ti_sysbios_hal_Hwi_HwiProxy_Params__init__S__mangled__
1001c145  ti_sysbios_family_arm_m3_Hwi_disableFxn__E
1001c151  ti_sysbios_family_arm_m3_Hwi_enableFxn__E
1001c15d  ti_sysbios_family_arm_m3_TaskSupport_getStackAlignment__E
1001c15d  ti_sysbios_knl_Task_SupportProxy_getStackAlignment__E__mangled__
1001c169  ti_sysbios_gates_GateHwi_enter__E
1001c175  ti_sysbios_BIOS_RtsGateProxy_Params__init__S
1001c175  ti_sysbios_BIOS_RtsGateProxy_Params__init__S__mangled__
1001c175  ti_sysbios_gates_GateMutex_Params__init__S
1001c175  ti_sysbios_heaps_HeapMem_Module_GateProxy_Params__init__S
1001c175  ti_sysbios_heaps_HeapMem_Module_GateProxy_Params__init__S__mangled__
1001c181  ti_sysbios_knl_Clock_Params__init__S
1001c18d  ti_sysbios_knl_Clock_getTimerHandle__E
1001c199  ti_sysbios_knl_Mailbox_Params__init__S
1001c1a5  ti_sysbios_knl_Queue_dequeue__E
1001c1b1  ti_sysbios_knl_Queue_enqueue__E
1001c1bd  ti_sysbios_knl_Semaphore_Params__init__S
1001c1c9  ti_sysbios_knl_Swi_Params__init__S
1001c1d5  ti_sysbios_knl_Task_Params__init__S
1001c1e1  ti_sysbios_knl_Task_self__E
1001c1ed  ti_sysbios_hal_Hwi_Instance_finalize__E
1001c1f7  ti_sysbios_family_arm_m3_Hwi_doSwiRestore__I
1001c1ff  ti_sysbios_family_arm_m3_Hwi_startup__E
1001c1ff  ti_sysbios_hal_Hwi_HwiProxy_startup__E__mangled__
1001c207  ti_sysbios_knl_Idle_loop__E
1001c20f  ti_sysbios_family_arm_m3_Hwi_doTaskRestore__I
1001c215  HwiP_restore
1001c215  ti_sysbios_family_arm_m3_Hwi_restoreFxn__E
1001c21b  ti_sysbios_gates_GateHwi_leave__E
1001c227  ti_sysbios_knl_Queue_Instance_init__E
1001c22d  ti_sysbios_knl_Queue_elemClear__E
1001c233  ti_sysbios_knl_Swi_Module_startup__E
1001c239  ti_sysbios_knl_Swi_startup__E
1001c23f  ti_sysbios_knl_Task_enable__E
1001c245  ti_sysbios_BIOS_RtsGateProxy_enter__E
1001c249  ti_sysbios_BIOS_RtsGateProxy_leave__E
1001c24d  ti_sysbios_family_arm_cc26xx_Timer_getExpiredTicks__E
1001c251  ti_sysbios_family_arm_cc26xx_Timer_getPeriod__E
1001c255  ti_sysbios_family_arm_cc26xx_Timer_setPeriod__E
1001c259  ti_sysbios_family_arm_m3_Hwi_delete
1001c25d  ti_sysbios_family_arm_m3_Hwi_destruct
1001c261  ti_sysbios_family_arm_m3_TaskSupport_Module__startupDone__S
1001c261  ti_sysbios_knl_Task_SupportProxy_Module__startupDone__S__mangled__
1001c265  ti_sysbios_gates_GateHwi_query__E
1001c265  xdc_runtime_Main_Module_GateProxy_query__E
1001c265  xdc_runtime_System_Module_GateProxy_query__E
1001c265  xdc_runtime_System_Module_GateProxy_query__E__mangled__
1001c269  ti_sysbios_gates_GateMutex_delete
1001c26d  ti_sysbios_gates_GateMutex_destruct
1001c271  ti_sysbios_BIOS_RtsGateProxy_query__E
1001c271  ti_sysbios_BIOS_RtsGateProxy_query__E__mangled__
1001c271  ti_sysbios_gates_GateMutex_query__E
1001c271  ti_sysbios_heaps_HeapMem_Module_GateProxy_query__E
1001c271  ti_sysbios_heaps_HeapMem_Module_GateProxy_query__E__mangled__
1001c275  ti_sysbios_hal_Hwi_HwiProxy_Module__startupDone__S
1001c279  ti_sysbios_hal_Hwi_HwiProxy_delete
1001c27d  ti_sysbios_hal_Hwi_HwiProxy_disableInterrupt__E
1001c27d  ti_sysbios_hal_Hwi_disableInterrupt__E
1001c27d  ti_sysbios_hal_Hwi_disableInterrupt__E
1001c281  ti_sysbios_hal_Hwi_HwiProxy_enableInterrupt__E
1001c281  ti_sysbios_hal_Hwi_enableInterrupt__E
1001c281  ti_sysbios_hal_Hwi_enableInterrupt__E
1001c285  ti_sysbios_hal_Hwi_HwiProxy_getStackInfo__E
1001c285  ti_sysbios_hal_Hwi_getStackInfo__E
1001c285  ti_sysbios_hal_Hwi_getStackInfo__E
1001c289  ti_sysbios_hal_Hwi_HwiProxy_startup__E
1001c289  ti_sysbios_hal_Hwi_startup__E
1001c289  ti_sysbios_hal_Hwi_startup__E
1001c28d  ti_sysbios_hal_Hwi_HwiProxy_switchFromBootStack__E
1001c291  ti_sysbios_hal_Hwi_delete
1001c295  ti_sysbios_hal_Hwi_switchFromBootStack__E
1001c295  ti_sysbios_hal_Hwi_switchFromBootStack__E
1001c299  ti_sysbios_heaps_HeapMem_Module_GateProxy_enter__E
1001c29d  ti_sysbios_heaps_HeapMem_Module_GateProxy_leave__E
1001c2a1  ti_sysbios_heaps_HeapMem_isBlocking__E
1001c2a5  ti_sysbios_knl_Clock_TimerProxy_Module__startupDone__S
1001c2a9  ti_sysbios_knl_Clock_TimerProxy_getExpiredTicks__E
1001c2ad  ti_sysbios_knl_Clock_TimerProxy_getPeriod__E
1001c2b1  ti_sysbios_knl_Clock_delete
1001c2b5  ti_sysbios_knl_Clock_destruct
1001c2b9  ti_sysbios_knl_Clock_removeI__E
1001c2bd  ti_sysbios_knl_Clock_setTimeout__E
1001c2c1  ti_sysbios_knl_Mailbox_delete
1001c2c5  ti_sysbios_knl_Mailbox_destruct
1001c2c9  ti_sysbios_knl_Queue_delete
1001c2cd  ti_sysbios_knl_Queue_destruct
1001c2d1  ti_sysbios_knl_Queue_head__E
1001c2d5  ti_sysbios_knl_Queue_next__E
1001c2d9  ti_sysbios_knl_Semaphore_delete
1001c2dd  ti_sysbios_knl_Semaphore_destruct
1001c2e1  ti_sysbios_knl_Swi_delete
1001c2e5  ti_sysbios_knl_Swi_destruct
1001c2e9  ti_sysbios_knl_Swi_postInit__I
1001c2ed  ti_sysbios_knl_Task_SupportProxy_Module__startupDone__S
1001c2f1  ti_sysbios_knl_Task_SupportProxy_getStackAlignment__E
1001c2f5  ti_sysbios_knl_Task_SupportProxy_start__E
1001c2f9  ti_sysbios_knl_Task_SupportProxy_swap__E
1001c2fd  ti_sysbios_knl_Task_delete
1001c301  ti_sysbios_knl_Task_destruct
1001c305  ti_sysbios_knl_Task_startup__E
1001c309  xdc_runtime_Startup_startMods__I
1001c401  xdc_runtime_Core_createObject__I
1001c483  xdc_runtime_Error_policySpin__E
1001c485  xdc_runtime_Memory_alloc__E
1001c4f5  xdc_runtime_Core_deleteObject__I
1001c555  xdc_runtime_Startup_exec__E
1001c5a5  xdc_runtime_Assert_raise__I
1001c5ed  xdc_runtime_Core_assignParams__I
1001c635  xdc_runtime_Core_constructObject__I
1001c67d  xdc_runtime_System_atexit__E
1001c6b5  xdc_runtime_System_processAtExit__E
1001c6e9  xdc_runtime_Core_assignLabel__I
1001c719  xdc_runtime_Text_cordText__E
1001c745  xdc_runtime_System_abort__E
1001c765  xdc_runtime_Error_raiseX__E
1001c781  xdc_runtime_Memory_valloc__E
1001c79d  xdc_runtime_Core_destructObject__I
1001c7b5  xdc_runtime_Error_check__E
1001c7cd  xdc_runtime_System_exit__E
1001c7e5  xdc_runtime_Text_ropeText__E
1001c7fd  xdc_runtime_Memory_free__E
1001c80d  xdc_runtime_SysCallback_abort__E
1001c80d  xdc_runtime_System_SupportProxy_abort__E
1001c81d  xdc_runtime_SysCallback_exit__E
1001c81d  xdc_runtime_System_SupportProxy_exit__E
1001c82d  xdc_runtime_Timestamp_SupportProxy_get32__E
1001c82d  xdc_runtime_Timestamp_get32__E
1001c82d  xdc_runtime_Timestamp_get32__E
1001c849  xdc_runtime_Memory_calloc__E
1001c855  xdc_runtime_Memory_getMaxDefaultTypeAlign__E
1001c875  xdc_runtime_Gate_leaveSystem__E
1001c87b  xdc_runtime_System_Module_startup__E
1001c881  xdc_runtime_Gate_enterSystem__E
1001c885  xdc_runtime_Memory_HeapProxy_alloc__E
1001c889  xdc_runtime_Memory_HeapProxy_free__E
1001c88d  xdc_runtime_System_Module_GateProxy_enter__E
1001c891  xdc_runtime_System_Module_GateProxy_leave__E
1001c895  xdc_runtime_System_abortSpin__E
1001c897  xdc_runtime_System_exitSpin__E
1001c899  ti_sysbios_family_arm_m3_Hwi_dispatch__I
1001c969  ti_sysbios_family_arm_m3_TaskSupport_buildTaskStack
1001c9b5  ti_sysbios_family_arm_m3_Hwi_initStacks__E
1001c9fd  ti_sysbios_family_arm_m3_Hwi_excHandlerAsm__I
1001ca1d  ti_sysbios_family_xxx_Hwi_switchAndRunFunc
1001ca3b  ti_sysbios_family_arm_m3_Hwi_pendSV__I
1001ca53  ti_sysbios_family_arm_m3_Hwi_return
1001ca55  ti_sysbios_family_arm_m3_TaskSupport_glue
1001ca65  ti_sysbios_family_arm_m3_TaskSupport_swap__E
1001ca65  ti_sysbios_knl_Task_SupportProxy_swap__E__mangled__
1001ca6d  ti_sysbios_knl_Task_swapReturn
1001ca97  ti_sysbios_rom_cortexm_cc13xx_CC13xx_getRevision__E
20000000  ti_sysbios_family_arm_m3_Hwi_ramVectors
20000100  ti_sysbios_knl_Task_Module__state__V
20000144  ti_sysbios_family_arm_m3_Hwi_Module__state__V
20000178  ti_sysbios_knl_Clock_Module__state__V
200001a4  ti_sysbios_BIOS_Module__state__V
200001c8  ti_sysbios_knl_Swi_Module__state__V
200001e4  ti_sysbios_family_arm_cc26xx_Timer_Module__state__V
200001ec  ti_sysbios_family_arm_cc26xx_TimestampProvider_Module__state__V
200001f0  xdc_runtime_Startup_Module__state__V
200001f8  xdc_runtime_System_Module__state__V
20000200  xdc_runtime_Memory_Module__state__V
20000208  macTaskId
20000209  macMgmt
2000020a  macPanCoordinator
2000020b  csmPhy
2000020c  pMacDataTx
20000210  macDataTxIndirect
20000214  macDataRequeueIndirect
20000218  macDataRxBeaconCritical
2000021c  macDataTxBeaconComplete
20000220  macDataSetSched
20000224  macDataCheckSched
20000228  macDataCheckTxTime
2000022c  macDataBeaconRequeue
20000230  timerUnalignedQ
20000234  timerAlignedQ
20000238  macTimerRollover
2000023c  macTimerNewRollover
20000240  macTimerActive
20000244  Crypto_handle
20000248  cryptoDrvTblPtr
2000024c  macCoordAction1
20000254  macMain
20000260  macBeaconDeviceAction
20000270  macCoordAction3
20000280  macData
20000290  macDataTxDelay
200002a0  macDeviceAction2
200002b4  macStateTbl
200002c8  macMgmtAction2
200002dc  macScanAction
200002f4  macCoordAction2
20000310  macReset
2000032c  macBeaconMargin
2000034c  macBeacon
2000036c  macActionSet
20000390  macMgmtAction1
200003b8  macCoord
200003e4  macDevice
20000410  macBeaconDevice
20000444  macBeaconPayload
20000478  macDeviceAction1
200004b0  macSecurityPib
200004f0  macScan
20000544  fhObject
200005b0  macPib
20000638  macMRFSKGenPhyTable
200006d8  enhancedAckBuf
200007d4  uartParams
200007f8  user0Cfg
20000828  myTask
20000878  Main_user1Cfg
200008d4  myTaskStack
20000c5c  hUart
20001060  macAddrSize
20001064  FHNT_Dbg
2000106c  FH_txTiming
20001074  FHNT_tempTable
2000107c  FH_FSM
20001088  FHNT_hnd
200010c0  FHFSM_Dbg
20001104  FHIE_channelPlan
20001158  FHNT_tableOpt
200011d4  FH_hnd
2000125c  FHPIB_db
200012e8  pinUpperBound
200012ec  pinLowerBound
20001380  pinHandleTable
200013fc  PowerCC26XX_module
20001510  Ssf_resetReseason
20001514  Ssf_resetCount
20001614  RF_cmdNop
20001624  RF_cmdFs
2000163c  RF_cmdPropCs
20001658  RF_cmdPropCsSlotted
20001674  RF_cmdPropTxAdv
20001694  RF_cmdPropRadioDivSetup
200016bc  RF_cmdPropRxAdv
200016ee  Sensor_events
20001740  Sensor_msgStats
200017b8  initBroadcastMsg
200017ba  parentFound
200017c2  Jdllc_events
200017e4  Jdllc_statistics
20001868  ICall_enterCriticalSection
2000186c  ICall_leaveCriticalSection
20001884  HEAPMGR_SIZE
20001888  ICall_dispatcher
20001950  macReqAccessTimeCnt
20001951  reqAccessAlloc
20001954  rxCmdHandle
20001956  fsCmdHandle
2000195c  lastPostCmd
20001960  macSfdDetectCback
20001968  macTxTimestamp
2000196c  pMacRadioConfig
20001970  rfDrvTblPtr
20001974  pRfPropTable
20001978  pRfPropTableOld
2000197c  pMacRfAntSwitchSel
20001980  pMacRfAntPwrSel
20001990  macRxOutputSubG
2000199c  macFrmFilter
200019b0  ti_sysbios_knl_Task_Object__table__V
20001a44  macTxSlottedDelay
20001a45  macUnitBackoffPeriod
20001a46  rxFhRsl
20001a47  macPhyChannel
20001a48  ti_sysbios_family_arm_cc26xx_Timer_Object__table__V
20001ad4  ti_sysbios_gates_GateMutex_Object__table__V
20001b14  RF_handle
20001b18  macPhyTxPower
20001b24  RF_params
20001b41  osal_entity
20001b48  osal_qHead
20001b4c  osal_eventloop_hook
20001b50  osal_icallMsg_hook
20001b54  osal_semaphore
20001b58  osal_last_timestamp
20001b5c  osal_tickperiod
20001b60  osal_max_msecs
20001b70  txCmdHandle
20001b74  pMacEnhancedAck
20001b78  macRadioAckFrame
20001b80  macAckTimer
20001ba0  ti_sysbios_knl_Swi_Module_State_0_readyQ__A
20001bd0  ti_sysbios_knl_Swi_Object__table__V
20001c00  ti_sysbios_knl_Task_Module_State_0_readyQ__A
20001c30  macTxSlottedDelayFactor
20001c31  macTxType
20001c32  macTxBe
20001c33  txAckReq
20001c38  macTxCsmaBackoffDelay
20001c3c  macCsmaRtcTimerId
20001c40  macAckDbg
20001c54  ti_sysbios_knl_Clock_Object__table__V
20001c74  xdc_runtime_Error_IgnoreBlock
20001cb0  macSpecUsecsPerSymbol
20001cb4  macPrevPeriodRatCount
20001cb8  macSymbolTimerRollover
20001cbc  macSymbolTimerTrigger
20001cc8  ti_sysbios_family_arm_m3_Hwi_Object__table__V
20001ce0  ti_sysbios_heaps_HeapMem_Object__table__V
20001cf8  ApiMac_appEntity
20001d04  ApiMac_extAddr
20001d0c  macCfg
20001d1c  lastRatChanA
20001d1d  lastRatChanB
20001d1e  macRxCmdActive
20001d1f  macTxCmdActive
20001d20  macFsCmdActive
20001d22  macReqAccessCnt
20001d24  macReqAccErrCnt
20001d26  numRfCmd
20001d27  numRxCmd
20001d28  numRxPostCmd
20001d29  bInSwi
20001d2a  macRadioYielded
20001d2c  AppTaskId
20001d30  pMacCbackQueryRetransmit
20001d34  pMacCbackCheckPending
20001d38  RFCC26XX_hwAttrs
20001d48  OSAL_timeSeconds
20001d50  sector_addr
20001d5c  _lock
20001d60  _unlock
20001d64  pOverridesTable
20001d6c  ti_sysbios_family_arm_m3_Hwi_Module__root__V
20001d74  ti_sysbios_gates_GateHwi_Module__root__V
20001d7c  ti_sysbios_gates_GateMutex_Module__root__V
20001d84  ti_sysbios_hal_Hwi_Module__root__V
20001d8c  ti_sysbios_heaps_HeapMem_Module__root__V
20001d94  ti_sysbios_knl_Clock_Module__root__V
20001d9c  ti_sysbios_knl_Mailbox_Module__root__V
20001da4  ti_sysbios_knl_Queue_Module__root__V
20001dac  ti_sysbios_knl_Semaphore_Module__root__V
20001db4  ti_sysbios_knl_Swi_Module__root__V
20001dbc  ti_sysbios_knl_Task_Module__root__V
20001dc4  xdc_runtime_Registry_Module__state__V
20001dcc  pwrmgr_initialized
20001dce  pwrmgr_attribute
20001dd4  main_func_sp
20001dd8  ti_sysbios_family_arm_m3_Hwi_Module_State_0_excContext__A
20001ddc  ti_sysbios_family_arm_m3_Hwi_Module_State_0_excStack__A
20001de0  ti_sysbios_knl_Task_Module_State_0_idleTask__A
20001de4  ti_sysbios_family_arm_m3_Hwi_Module_State_0_excActive__A
20001de8  ti_sysbios_heaps_HeapMem_Instance_State_0_buf__A
20002820  ti_sysbios_knl_Task_Instance_State_0_stack__A
20002a20  uartCC26XXObjects
20002c10  ti_sysbios_family_arm_m3_Hwi_dispatchTable
20002cd8  cryptoCC26XXObjects
20002d58  macRxFilter
20002d59  rxPromiscuousMode
20002d64  macRxDataEntryOffset
20002d6c  rxRadioBufferPtr
20002d78  macRxDataEntryQueue
20002da8  uartCC26XXRingBuffer
20002e1c  PowerCC26XX_taskKey
20002e20  PowerCC26XX_swiKey
20002e24  timerHead
20002e38  ClockP_tickPeriod
20002e3c  tasksEvents
20002e44  driverlib_release_0_51635
20002e45  g_hwiInt
20002e46  macPwr
20002e47  macRxActive
20002e48  macRxEnableFlags
20002e49  macRxOutgoingAckFlag
20002e4a  macSymbolTimerImpending
20002e4b  macTxActive
20002e4c  heapStart
20004b00  __stack
20004b00  heapEnd
20005000  __STACK_END
20005000  __STACK_TOP
e000e000  ti_sysbios_family_arm_m3_Hwi_nvic
ffffffff  __TI_pprof_out_hndl
ffffffff  __TI_prof_data_size
ffffffff  __TI_prof_data_start
ffffffff  __binit__
ffffffff  __c_args__
ffffffff  binit
UNDEFED   SHT$$INIT_ARRAY$$Base
UNDEFED   SHT$$INIT_ARRAY$$Limit

[1466 symbols]
